	.file	"osm.cpp"
# GNU C++14 (Debian 10.2.1-6) version 10.2.1 20210110 (x86_64-linux-gnu)
#	compiled by GNU C version 10.2.1 20210110, GMP version 6.2.1, MPFR version 4.1.0, MPC version 1.2.0, isl version isl-0.23-GMP

# GGC heuristics: --param ggc-min-expand=100 --param ggc-min-heapsize=131072
# options passed:  -imultiarch x86_64-linux-gnu -D_GNU_SOURCE osm.cpp
# -mtune=generic -march=x86-64 -auxbase-strip osm.s -g -fverbose-asm
# -fasynchronous-unwind-tables
# options enabled:  -fPIC -fPIE -faggressive-loop-optimizations
# -fallocation-dce -fasynchronous-unwind-tables -fauto-inc-dec
# -fdelete-null-pointer-checks -fdwarf2-cfi-asm -fearly-inlining
# -feliminate-unused-debug-symbols -feliminate-unused-debug-types
# -fexceptions -ffp-int-builtin-inexact -ffunction-cse -fgcse-lm
# -fgnu-unique -fident -finline-atomics -fipa-stack-alignment
# -fira-hoist-pressure -fira-share-save-slots -fira-share-spill-slots
# -fivopts -fkeep-static-consts -fleading-underscore -flifetime-dse
# -fmath-errno -fmerge-debug-strings -fpeephole -fplt
# -fprefetch-loop-arrays -freg-struct-return
# -fsched-critical-path-heuristic -fsched-dep-count-heuristic
# -fsched-group-heuristic -fsched-interblock -fsched-last-insn-heuristic
# -fsched-rank-heuristic -fsched-spec -fsched-spec-insn-heuristic
# -fsched-stalled-insns-dep -fschedule-fusion -fsemantic-interposition
# -fshow-column -fshrink-wrap-separate -fsigned-zeros
# -fsplit-ivs-in-unroller -fssa-backprop -fstdarg-opt
# -fstrict-volatile-bitfields -fsync-libcalls -ftrapping-math -ftree-cselim
# -ftree-forwprop -ftree-loop-if-convert -ftree-loop-im -ftree-loop-ivcanon
# -ftree-loop-optimize -ftree-parallelize-loops= -ftree-phiprop
# -ftree-reassoc -ftree-scev-cprop -funit-at-a-time -funwind-tables
# -fverbose-asm -fzero-initialized-in-bss -m128bit-long-double -m64 -m80387
# -malign-stringops -mavx256-split-unaligned-load
# -mavx256-split-unaligned-store -mfancy-math-387 -mfp-ret-in-387 -mfxsr
# -mglibc -mieee-fp -mlong-double-80 -mmmx -mno-sse4 -mpush-args -mred-zone
# -msse -msse2 -mstv -mtls-direct-seg-refs -mvzeroupper

	.text
.Ltext0:
	.section	.rodata
	.type	_ZStL19piecewise_construct, @object
	.size	_ZStL19piecewise_construct, 1
_ZStL19piecewise_construct:
	.zero	1
	.local	_ZStL8__ioinit
	.comm	_ZStL8__ioinit,1,1
	.text
	.globl	_Z14empty_functionv
	.type	_Z14empty_functionv, @function
_Z14empty_functionv:
.LFB1801:
	.file 1 "osm.cpp"
	.loc 1 7 23
	.cfi_startproc
	pushq	%rbp	#
	.cfi_def_cfa_offset 16
	.cfi_offset 6, -16
	movq	%rsp, %rbp	#,
	.cfi_def_cfa_register 6
# osm.cpp:9: }
	.loc 1 9 1
	nop	
	popq	%rbp	#
	.cfi_def_cfa 7, 8
	ret	
	.cfi_endproc
.LFE1801:
	.size	_Z14empty_functionv, .-_Z14empty_functionv
	.globl	_Z18osm_operation_timej
	.type	_Z18osm_operation_timej, @function
_Z18osm_operation_timej:
.LFB1802:
	.loc 1 11 52
	.cfi_startproc
	pushq	%rbp	#
	.cfi_def_cfa_offset 16
	.cfi_offset 6, -16
	movq	%rsp, %rbp	#,
	.cfi_def_cfa_register 6
	subq	$96, %rsp	#,
	movl	%edi, -84(%rbp)	# iterations, iterations
# osm.cpp:12:     if (iterations == 0) {
	.loc 1 12 5
	cmpl	$0, -84(%rbp)	#, iterations
	jne	.L3	#,
# osm.cpp:13:         return -1;
	.loc 1 13 17
	movsd	.LC0(%rip), %xmm0	#, _14
	jmp	.L9	#
.L3:
# osm.cpp:19:     int a = 1;
	.loc 1 19 9
	movl	$1, -8(%rbp)	#, a
# osm.cpp:20:     int b = 1;
	.loc 1 20 9
	movl	$1, -12(%rbp)	#, b
# osm.cpp:21:     gettimeofday(&start_time, nullptr);
	.loc 1 21 17
	leaq	-64(%rbp), %rax	#, tmp96
	movl	$0, %esi	#,
	movq	%rax, %rdi	# tmp96,
	call	gettimeofday@PLT	#
.LBB2:
# osm.cpp:22:     for (int i = 0; i < iterations; i += 5) {
	.loc 1 22 14
	movl	$0, -4(%rbp)	#, i
.L6:
# osm.cpp:22:     for (int i = 0; i < iterations; i += 5) {
	.loc 1 22 21 discriminator 3
	movl	-4(%rbp), %eax	# i, i.0_1
# osm.cpp:22:     for (int i = 0; i < iterations; i += 5) {
	.loc 1 22 23 discriminator 3
	cmpl	%eax, -84(%rbp)	# i.0_1, iterations
	jbe	.L5	#,
# osm.cpp:23:         res = a + b;
	.loc 1 23 13 discriminator 2
	movl	-8(%rbp), %edx	# a, tmp101
	movl	-12(%rbp), %eax	# b, tmp102
	addl	%edx, %eax	# tmp101, tmp100
	movl	%eax, -16(%rbp)	# tmp100, res
# osm.cpp:24:         res = a + b;
	.loc 1 24 13 discriminator 2
	movl	-8(%rbp), %edx	# a, tmp107
	movl	-12(%rbp), %eax	# b, tmp108
	addl	%edx, %eax	# tmp107, tmp106
	movl	%eax, -16(%rbp)	# tmp106, res
# osm.cpp:25:         res = a + b;
	.loc 1 25 13 discriminator 2
	movl	-8(%rbp), %edx	# a, tmp113
	movl	-12(%rbp), %eax	# b, tmp114
	addl	%edx, %eax	# tmp113, tmp112
	movl	%eax, -16(%rbp)	# tmp112, res
# osm.cpp:26:         res = a + b;
	.loc 1 26 13 discriminator 2
	movl	-8(%rbp), %edx	# a, tmp119
	movl	-12(%rbp), %eax	# b, tmp120
	addl	%edx, %eax	# tmp119, tmp118
	movl	%eax, -16(%rbp)	# tmp118, res
# osm.cpp:27:         res = a + b;
	.loc 1 27 13 discriminator 2
	movl	-8(%rbp), %edx	# a, tmp125
	movl	-12(%rbp), %eax	# b, tmp126
	addl	%edx, %eax	# tmp125, tmp124
	movl	%eax, -16(%rbp)	# tmp124, res
# osm.cpp:22:     for (int i = 0; i < iterations; i += 5) {
	.loc 1 22 39 discriminator 2
	addl	$5, -4(%rbp)	#, i
# osm.cpp:22:     for (int i = 0; i < iterations; i += 5) {
	.loc 1 22 5 discriminator 2
	jmp	.L6	#
.L5:
.LBE2:
# osm.cpp:30:     gettimeofday(&end_time, nullptr);
	.loc 1 30 17
	leaq	-80(%rbp), %rax	#, tmp127
	movl	$0, %esi	#,
	movq	%rax, %rdi	# tmp127,
	call	gettimeofday@PLT	#
# osm.cpp:32:     double sec_diff = 0, micro_sec_diff = 0, final_res;
	.loc 1 32 12
	pxor	%xmm0, %xmm0	# tmp128
	movsd	%xmm0, -24(%rbp)	# tmp128, sec_diff
# osm.cpp:32:     double sec_diff = 0, micro_sec_diff = 0, final_res;
	.loc 1 32 26
	pxor	%xmm0, %xmm0	# tmp129
	movsd	%xmm0, -32(%rbp)	# tmp129, micro_sec_diff
# osm.cpp:33:     sec_diff += (end_time.tv_sec - start_time.tv_sec);
	.loc 1 33 27
	movq	-80(%rbp), %rax	# end_time.tv_sec, _2
# osm.cpp:33:     sec_diff += (end_time.tv_sec - start_time.tv_sec);
	.loc 1 33 47
	movq	-64(%rbp), %rdx	# start_time.tv_sec, _3
# osm.cpp:33:     sec_diff += (end_time.tv_sec - start_time.tv_sec);
	.loc 1 33 34
	subq	%rdx, %rax	# _3, _4
# osm.cpp:33:     sec_diff += (end_time.tv_sec - start_time.tv_sec);
	.loc 1 33 14
	pxor	%xmm0, %xmm0	# _5
	cvtsi2sdq	%rax, %xmm0	# _4, _5
	movsd	-24(%rbp), %xmm1	# sec_diff, tmp131
	addsd	%xmm1, %xmm0	# tmp131, tmp130
	movsd	%xmm0, -24(%rbp)	# tmp130, sec_diff
# osm.cpp:34:     sec_diff = sec_diff * 1000000;
	.loc 1 34 14
	movsd	-24(%rbp), %xmm1	# sec_diff, tmp133
	movsd	.LC2(%rip), %xmm0	#, tmp134
	mulsd	%xmm1, %xmm0	# tmp133, tmp132
	movsd	%xmm0, -24(%rbp)	# tmp132, sec_diff
# osm.cpp:35:     micro_sec_diff += (end_time.tv_usec - start_time.tv_usec);
	.loc 1 35 33
	movq	-72(%rbp), %rax	# end_time.tv_usec, _6
# osm.cpp:35:     micro_sec_diff += (end_time.tv_usec - start_time.tv_usec);
	.loc 1 35 54
	movq	-56(%rbp), %rdx	# start_time.tv_usec, _7
# osm.cpp:35:     micro_sec_diff += (end_time.tv_usec - start_time.tv_usec);
	.loc 1 35 41
	subq	%rdx, %rax	# _7, _8
# osm.cpp:35:     micro_sec_diff += (end_time.tv_usec - start_time.tv_usec);
	.loc 1 35 20
	pxor	%xmm0, %xmm0	# _9
	cvtsi2sdq	%rax, %xmm0	# _8, _9
	movsd	-32(%rbp), %xmm1	# micro_sec_diff, tmp136
	addsd	%xmm1, %xmm0	# tmp136, tmp135
	movsd	%xmm0, -32(%rbp)	# tmp135, micro_sec_diff
# osm.cpp:36:     final_res = (sec_diff + micro_sec_diff) * 1000 / (iterations);
	.loc 1 36 27
	movsd	-24(%rbp), %xmm0	# sec_diff, tmp137
	movapd	%xmm0, %xmm1	# tmp137, tmp137
	addsd	-32(%rbp), %xmm1	# micro_sec_diff, tmp137
# osm.cpp:36:     final_res = (sec_diff + micro_sec_diff) * 1000 / (iterations);
	.loc 1 36 45
	movsd	.LC3(%rip), %xmm0	#, tmp138
	mulsd	%xmm0, %xmm1	# tmp138, _11
# osm.cpp:36:     final_res = (sec_diff + micro_sec_diff) * 1000 / (iterations);
	.loc 1 36 52
	movl	-84(%rbp), %eax	# iterations, tmp139
	testq	%rax, %rax	# tmp139
	js	.L7	#,
	pxor	%xmm0, %xmm0	# _12
	cvtsi2sdq	%rax, %xmm0	# tmp139, _12
	jmp	.L8	#
.L7:
	movq	%rax, %rdx	# tmp139, tmp141
	shrq	%rdx	# tmp141
	andl	$1, %eax	#, tmp142
	orq	%rax, %rdx	# tmp142, tmp141
	pxor	%xmm0, %xmm0	# tmp140
	cvtsi2sdq	%rdx, %xmm0	# tmp141, tmp140
	addsd	%xmm0, %xmm0	# tmp140, _12
.L8:
# osm.cpp:36:     final_res = (sec_diff + micro_sec_diff) * 1000 / (iterations);
	.loc 1 36 15
	divsd	%xmm0, %xmm1	# _12, tmp143
	movsd	%xmm1, -40(%rbp)	# tmp143, final_res
# osm.cpp:37:     return final_res;
	.loc 1 37 12
	movsd	-40(%rbp), %xmm0	# final_res, _14
.L9:
# osm.cpp:38: }
	.loc 1 38 1 discriminator 1
	movq	%xmm0, %rax	# _14, <retval>
	movq	%rax, %xmm0	# <retval>,
	leave	
	.cfi_def_cfa 7, 8
	ret	
	.cfi_endproc
.LFE1802:
	.size	_Z18osm_operation_timej, .-_Z18osm_operation_timej
	.globl	_Z17osm_function_timej
	.type	_Z17osm_function_timej, @function
_Z17osm_function_timej:
.LFB1803:
	.loc 1 40 51
	.cfi_startproc
	pushq	%rbp	#
	.cfi_def_cfa_offset 16
	.cfi_offset 6, -16
	movq	%rsp, %rbp	#,
	.cfi_def_cfa_register 6
	subq	$80, %rsp	#,
	movl	%edi, -68(%rbp)	# iterations, iterations
# osm.cpp:41:     if (iterations == 0) {
	.loc 1 41 5
	cmpl	$0, -68(%rbp)	#, iterations
	jne	.L11	#,
# osm.cpp:42:         return -1;
	.loc 1 42 17
	movsd	.LC0(%rip), %xmm0	#, _14
	jmp	.L17	#
.L11:
# osm.cpp:47:     gettimeofday(&start_time, nullptr);
	.loc 1 47 17
	leaq	-48(%rbp), %rax	#, tmp96
	movl	$0, %esi	#,
	movq	%rax, %rdi	# tmp96,
	call	gettimeofday@PLT	#
.LBB3:
# osm.cpp:48:     for (int i = 0; i < iterations; i += 5) {
	.loc 1 48 14
	movl	$0, -4(%rbp)	#, i
.L14:
# osm.cpp:48:     for (int i = 0; i < iterations; i += 5) {
	.loc 1 48 21 discriminator 3
	movl	-4(%rbp), %eax	# i, i.1_1
# osm.cpp:48:     for (int i = 0; i < iterations; i += 5) {
	.loc 1 48 23 discriminator 3
	cmpl	%eax, -68(%rbp)	# i.1_1, iterations
	jbe	.L13	#,
# osm.cpp:49:         empty_function();
	.loc 1 49 23 discriminator 2
	call	_Z14empty_functionv	#
# osm.cpp:50:         empty_function();
	.loc 1 50 23 discriminator 2
	call	_Z14empty_functionv	#
# osm.cpp:51:         empty_function();
	.loc 1 51 23 discriminator 2
	call	_Z14empty_functionv	#
# osm.cpp:52:         empty_function();
	.loc 1 52 23 discriminator 2
	call	_Z14empty_functionv	#
# osm.cpp:53:         empty_function();
	.loc 1 53 23 discriminator 2
	call	_Z14empty_functionv	#
# osm.cpp:48:     for (int i = 0; i < iterations; i += 5) {
	.loc 1 48 39 discriminator 2
	addl	$5, -4(%rbp)	#, i
# osm.cpp:48:     for (int i = 0; i < iterations; i += 5) {
	.loc 1 48 5 discriminator 2
	jmp	.L14	#
.L13:
.LBE3:
# osm.cpp:56:     gettimeofday(&end_time, nullptr);
	.loc 1 56 17
	leaq	-64(%rbp), %rax	#, tmp97
	movl	$0, %esi	#,
	movq	%rax, %rdi	# tmp97,
	call	gettimeofday@PLT	#
# osm.cpp:58:     double sec_diff = 0, micro_sec_diff = 0, final_res;
	.loc 1 58 12
	pxor	%xmm0, %xmm0	# tmp98
	movsd	%xmm0, -16(%rbp)	# tmp98, sec_diff
# osm.cpp:58:     double sec_diff = 0, micro_sec_diff = 0, final_res;
	.loc 1 58 26
	pxor	%xmm0, %xmm0	# tmp99
	movsd	%xmm0, -24(%rbp)	# tmp99, micro_sec_diff
# osm.cpp:59:     sec_diff += (end_time.tv_sec - start_time.tv_sec);
	.loc 1 59 27
	movq	-64(%rbp), %rax	# end_time.tv_sec, _2
# osm.cpp:59:     sec_diff += (end_time.tv_sec - start_time.tv_sec);
	.loc 1 59 47
	movq	-48(%rbp), %rdx	# start_time.tv_sec, _3
# osm.cpp:59:     sec_diff += (end_time.tv_sec - start_time.tv_sec);
	.loc 1 59 34
	subq	%rdx, %rax	# _3, _4
# osm.cpp:59:     sec_diff += (end_time.tv_sec - start_time.tv_sec);
	.loc 1 59 14
	pxor	%xmm0, %xmm0	# _5
	cvtsi2sdq	%rax, %xmm0	# _4, _5
	movsd	-16(%rbp), %xmm1	# sec_diff, tmp101
	addsd	%xmm1, %xmm0	# tmp101, tmp100
	movsd	%xmm0, -16(%rbp)	# tmp100, sec_diff
# osm.cpp:60:     sec_diff = sec_diff * 1000000;
	.loc 1 60 14
	movsd	-16(%rbp), %xmm1	# sec_diff, tmp103
	movsd	.LC2(%rip), %xmm0	#, tmp104
	mulsd	%xmm1, %xmm0	# tmp103, tmp102
	movsd	%xmm0, -16(%rbp)	# tmp102, sec_diff
# osm.cpp:61:     micro_sec_diff += (end_time.tv_usec - start_time.tv_usec);
	.loc 1 61 33
	movq	-56(%rbp), %rax	# end_time.tv_usec, _6
# osm.cpp:61:     micro_sec_diff += (end_time.tv_usec - start_time.tv_usec);
	.loc 1 61 54
	movq	-40(%rbp), %rdx	# start_time.tv_usec, _7
# osm.cpp:61:     micro_sec_diff += (end_time.tv_usec - start_time.tv_usec);
	.loc 1 61 41
	subq	%rdx, %rax	# _7, _8
# osm.cpp:61:     micro_sec_diff += (end_time.tv_usec - start_time.tv_usec);
	.loc 1 61 20
	pxor	%xmm0, %xmm0	# _9
	cvtsi2sdq	%rax, %xmm0	# _8, _9
	movsd	-24(%rbp), %xmm1	# micro_sec_diff, tmp106
	addsd	%xmm1, %xmm0	# tmp106, tmp105
	movsd	%xmm0, -24(%rbp)	# tmp105, micro_sec_diff
# osm.cpp:62:     final_res = (sec_diff + micro_sec_diff) * 1000 / (iterations);
	.loc 1 62 27
	movsd	-16(%rbp), %xmm0	# sec_diff, tmp107
	movapd	%xmm0, %xmm1	# tmp107, tmp107
	addsd	-24(%rbp), %xmm1	# micro_sec_diff, tmp107
# osm.cpp:62:     final_res = (sec_diff + micro_sec_diff) * 1000 / (iterations);
	.loc 1 62 45
	movsd	.LC3(%rip), %xmm0	#, tmp108
	mulsd	%xmm0, %xmm1	# tmp108, _11
# osm.cpp:62:     final_res = (sec_diff + micro_sec_diff) * 1000 / (iterations);
	.loc 1 62 52
	movl	-68(%rbp), %eax	# iterations, tmp109
	testq	%rax, %rax	# tmp109
	js	.L15	#,
	pxor	%xmm0, %xmm0	# _12
	cvtsi2sdq	%rax, %xmm0	# tmp109, _12
	jmp	.L16	#
.L15:
	movq	%rax, %rdx	# tmp109, tmp111
	shrq	%rdx	# tmp111
	andl	$1, %eax	#, tmp112
	orq	%rax, %rdx	# tmp112, tmp111
	pxor	%xmm0, %xmm0	# tmp110
	cvtsi2sdq	%rdx, %xmm0	# tmp111, tmp110
	addsd	%xmm0, %xmm0	# tmp110, _12
.L16:
# osm.cpp:62:     final_res = (sec_diff + micro_sec_diff) * 1000 / (iterations);
	.loc 1 62 15
	divsd	%xmm0, %xmm1	# _12, tmp113
	movsd	%xmm1, -32(%rbp)	# tmp113, final_res
# osm.cpp:63:     return final_res;
	.loc 1 63 12
	movsd	-32(%rbp), %xmm0	# final_res, _14
.L17:
# osm.cpp:65: }
	.loc 1 65 1 discriminator 1
	movq	%xmm0, %rax	# _14, <retval>
	movq	%rax, %xmm0	# <retval>,
	leave	
	.cfi_def_cfa 7, 8
	ret	
	.cfi_endproc
.LFE1803:
	.size	_Z17osm_function_timej, .-_Z17osm_function_timej
	.globl	_Z16osm_syscall_timej
	.type	_Z16osm_syscall_timej, @function
_Z16osm_syscall_timej:
.LFB1804:
	.loc 1 67 50
	.cfi_startproc
	pushq	%rbp	#
	.cfi_def_cfa_offset 16
	.cfi_offset 6, -16
	movq	%rsp, %rbp	#,
	.cfi_def_cfa_register 6
	pushq	%rbx	#
	subq	$88, %rsp	#,
	.cfi_offset 3, -24
	movl	%edi, -84(%rbp)	# iterations, iterations
# osm.cpp:68:     if (iterations == 0) {
	.loc 1 68 5
	cmpl	$0, -84(%rbp)	#, iterations
	jne	.L19	#,
# osm.cpp:69:         return -1;
	.loc 1 69 17
	movsd	.LC0(%rip), %xmm0	#, _14
	jmp	.L25	#
.L19:
# osm.cpp:73:     gettimeofday(&start_time, nullptr);
	.loc 1 73 17
	leaq	-64(%rbp), %rax	#, tmp96
	movl	$0, %esi	#,
	movq	%rax, %rdi	# tmp96,
	call	gettimeofday@PLT	#
.LBB4:
# osm.cpp:75:     for (int i = 0; i < iterations; i += 5) {
	.loc 1 75 14
	movl	$0, -20(%rbp)	#, i
.L22:
# osm.cpp:75:     for (int i = 0; i < iterations; i += 5) {
	.loc 1 75 21 discriminator 3
	movl	-20(%rbp), %eax	# i, i.2_1
# osm.cpp:75:     for (int i = 0; i < iterations; i += 5) {
	.loc 1 75 23 discriminator 3
	cmpl	%eax, -84(%rbp)	# i.2_1, iterations
	jbe	.L21	#,
# osm.cpp:76:         OSM_NULLSYSCALL;
	.loc 1 76 9 discriminator 2
	movl	$-1, %eax	#, tmp97
	movl	$0, %esi	#, tmp98
	movl	$0, %ecx	#, tmp99
	movl	$0, %edx	#, tmp100
	movl	%esi, %ebx	# tmp98, tmp98
#APP
# 76 "osm.cpp" 1
	int $0x80 
# 0 "" 2
# osm.cpp:77:         OSM_NULLSYSCALL;
	.loc 1 77 9 discriminator 2
#NO_APP
	movl	$-1, %eax	#, tmp101
	movl	$0, %esi	#, tmp102
	movl	$0, %ecx	#, tmp103
	movl	$0, %edx	#, tmp104
	movl	%esi, %ebx	# tmp102, tmp102
#APP
# 77 "osm.cpp" 1
	int $0x80 
# 0 "" 2
# osm.cpp:78:         OSM_NULLSYSCALL;
	.loc 1 78 9 discriminator 2
#NO_APP
	movl	$-1, %eax	#, tmp105
	movl	$0, %esi	#, tmp106
	movl	$0, %ecx	#, tmp107
	movl	$0, %edx	#, tmp108
	movl	%esi, %ebx	# tmp106, tmp106
#APP
# 78 "osm.cpp" 1
	int $0x80 
# 0 "" 2
# osm.cpp:79:         OSM_NULLSYSCALL;
	.loc 1 79 9 discriminator 2
#NO_APP
	movl	$-1, %eax	#, tmp109
	movl	$0, %esi	#, tmp110
	movl	$0, %ecx	#, tmp111
	movl	$0, %edx	#, tmp112
	movl	%esi, %ebx	# tmp110, tmp110
#APP
# 79 "osm.cpp" 1
	int $0x80 
# 0 "" 2
# osm.cpp:80:         OSM_NULLSYSCALL;
	.loc 1 80 9 discriminator 2
#NO_APP
	movl	$-1, %eax	#, tmp113
	movl	$0, %esi	#, tmp114
	movl	$0, %ecx	#, tmp115
	movl	$0, %edx	#, tmp116
	movl	%esi, %ebx	# tmp114, tmp114
#APP
# 80 "osm.cpp" 1
	int $0x80 
# 0 "" 2
# osm.cpp:75:     for (int i = 0; i < iterations; i += 5) {
	.loc 1 75 39 discriminator 2
#NO_APP
	addl	$5, -20(%rbp)	#, i
# osm.cpp:75:     for (int i = 0; i < iterations; i += 5) {
	.loc 1 75 5 discriminator 2
	jmp	.L22	#
.L21:
.LBE4:
# osm.cpp:82:     gettimeofday(&end_time, nullptr);
	.loc 1 82 17
	leaq	-80(%rbp), %rax	#, tmp117
	movl	$0, %esi	#,
	movq	%rax, %rdi	# tmp117,
	call	gettimeofday@PLT	#
# osm.cpp:84:     double sec_diff = 0, micro_sec_diff = 0, final_res;
	.loc 1 84 12
	pxor	%xmm0, %xmm0	# tmp118
	movsd	%xmm0, -32(%rbp)	# tmp118, sec_diff
# osm.cpp:84:     double sec_diff = 0, micro_sec_diff = 0, final_res;
	.loc 1 84 26
	pxor	%xmm0, %xmm0	# tmp119
	movsd	%xmm0, -40(%rbp)	# tmp119, micro_sec_diff
# osm.cpp:85:     sec_diff += (end_time.tv_sec - start_time.tv_sec);
	.loc 1 85 27
	movq	-80(%rbp), %rax	# end_time.tv_sec, _2
# osm.cpp:85:     sec_diff += (end_time.tv_sec - start_time.tv_sec);
	.loc 1 85 47
	movq	-64(%rbp), %rdx	# start_time.tv_sec, _3
# osm.cpp:85:     sec_diff += (end_time.tv_sec - start_time.tv_sec);
	.loc 1 85 34
	subq	%rdx, %rax	# _3, _4
# osm.cpp:85:     sec_diff += (end_time.tv_sec - start_time.tv_sec);
	.loc 1 85 14
	pxor	%xmm0, %xmm0	# _5
	cvtsi2sdq	%rax, %xmm0	# _4, _5
	movsd	-32(%rbp), %xmm1	# sec_diff, tmp121
	addsd	%xmm1, %xmm0	# tmp121, tmp120
	movsd	%xmm0, -32(%rbp)	# tmp120, sec_diff
# osm.cpp:86:     sec_diff = sec_diff * 1000000;
	.loc 1 86 14
	movsd	-32(%rbp), %xmm1	# sec_diff, tmp123
	movsd	.LC2(%rip), %xmm0	#, tmp124
	mulsd	%xmm1, %xmm0	# tmp123, tmp122
	movsd	%xmm0, -32(%rbp)	# tmp122, sec_diff
# osm.cpp:87:     micro_sec_diff += (end_time.tv_usec - start_time.tv_usec);
	.loc 1 87 33
	movq	-72(%rbp), %rax	# end_time.tv_usec, _6
# osm.cpp:87:     micro_sec_diff += (end_time.tv_usec - start_time.tv_usec);
	.loc 1 87 54
	movq	-56(%rbp), %rdx	# start_time.tv_usec, _7
# osm.cpp:87:     micro_sec_diff += (end_time.tv_usec - start_time.tv_usec);
	.loc 1 87 41
	subq	%rdx, %rax	# _7, _8
# osm.cpp:87:     micro_sec_diff += (end_time.tv_usec - start_time.tv_usec);
	.loc 1 87 20
	pxor	%xmm0, %xmm0	# _9
	cvtsi2sdq	%rax, %xmm0	# _8, _9
	movsd	-40(%rbp), %xmm1	# micro_sec_diff, tmp126
	addsd	%xmm1, %xmm0	# tmp126, tmp125
	movsd	%xmm0, -40(%rbp)	# tmp125, micro_sec_diff
# osm.cpp:88:     final_res = (sec_diff + micro_sec_diff) * 1000 / (iterations);
	.loc 1 88 27
	movsd	-32(%rbp), %xmm0	# sec_diff, tmp127
	movapd	%xmm0, %xmm1	# tmp127, tmp127
	addsd	-40(%rbp), %xmm1	# micro_sec_diff, tmp127
# osm.cpp:88:     final_res = (sec_diff + micro_sec_diff) * 1000 / (iterations);
	.loc 1 88 45
	movsd	.LC3(%rip), %xmm0	#, tmp128
	mulsd	%xmm0, %xmm1	# tmp128, _11
# osm.cpp:88:     final_res = (sec_diff + micro_sec_diff) * 1000 / (iterations);
	.loc 1 88 52
	movl	-84(%rbp), %eax	# iterations, tmp129
	testq	%rax, %rax	# tmp129
	js	.L23	#,
	pxor	%xmm0, %xmm0	# _12
	cvtsi2sdq	%rax, %xmm0	# tmp129, _12
	jmp	.L24	#
.L23:
	movq	%rax, %rdx	# tmp129, tmp131
	shrq	%rdx	# tmp131
	andl	$1, %eax	#, tmp132
	orq	%rax, %rdx	# tmp132, tmp131
	pxor	%xmm0, %xmm0	# tmp130
	cvtsi2sdq	%rdx, %xmm0	# tmp131, tmp130
	addsd	%xmm0, %xmm0	# tmp130, _12
.L24:
# osm.cpp:88:     final_res = (sec_diff + micro_sec_diff) * 1000 / (iterations);
	.loc 1 88 15
	divsd	%xmm0, %xmm1	# _12, tmp133
	movsd	%xmm1, -48(%rbp)	# tmp133, final_res
# osm.cpp:89:     return final_res;
	.loc 1 89 12
	movsd	-48(%rbp), %xmm0	# final_res, _14
.L25:
# osm.cpp:90: }
	.loc 1 90 1 discriminator 1
	movq	%xmm0, %rax	# _14, <retval>
	movq	%rax, %xmm0	# <retval>,
	movq	-8(%rbp), %rbx	#,
	leave	
	.cfi_def_cfa 7, 8
	ret	
	.cfi_endproc
.LFE1804:
	.size	_Z16osm_syscall_timej, .-_Z16osm_syscall_timej
	.globl	main
	.type	main, @function
main:
.LFB1805:
	.loc 1 92 12
	.cfi_startproc
	pushq	%rbp	#
	.cfi_def_cfa_offset 16
	.cfi_offset 6, -16
	movq	%rsp, %rbp	#,
	.cfi_def_cfa_register 6
# osm.cpp:93:     std::cout << osm_operation_time(6000) << std::endl;
	.loc 1 93 41
	movl	$6000, %edi	#,
	call	_Z18osm_operation_timej	#
	movq	%xmm0, %rax	#, _1
	movq	%rax, %xmm0	# _1,
	leaq	_ZSt4cout(%rip), %rdi	#,
	call	_ZNSolsEd@PLT	#
	movq	%rax, %rdx	#, _2
# osm.cpp:93:     std::cout << osm_operation_time(6000) << std::endl;
	.loc 1 93 51
	movq	_ZSt4endlIcSt11char_traitsIcEERSt13basic_ostreamIT_T0_ES6_@GOTPCREL(%rip), %rax	#, tmp90
	movq	%rax, %rsi	# tmp90,
	movq	%rdx, %rdi	# _2,
	call	_ZNSolsEPFRSoS_E@PLT	#
# osm.cpp:94:     std::cout << osm_function_time(6000) << std::endl;
	.loc 1 94 40
	movl	$6000, %edi	#,
	call	_Z17osm_function_timej	#
	movq	%xmm0, %rax	#, _3
	movq	%rax, %xmm0	# _3,
	leaq	_ZSt4cout(%rip), %rdi	#,
	call	_ZNSolsEd@PLT	#
	movq	%rax, %rdx	#, _4
# osm.cpp:94:     std::cout << osm_function_time(6000) << std::endl;
	.loc 1 94 50
	movq	_ZSt4endlIcSt11char_traitsIcEERSt13basic_ostreamIT_T0_ES6_@GOTPCREL(%rip), %rax	#, tmp91
	movq	%rax, %rsi	# tmp91,
	movq	%rdx, %rdi	# _4,
	call	_ZNSolsEPFRSoS_E@PLT	#
# osm.cpp:95:     std::cout << osm_syscall_time(6000) << std::endl;
	.loc 1 95 39
	movl	$6000, %edi	#,
	call	_Z16osm_syscall_timej	#
	movq	%xmm0, %rax	#, _5
	movq	%rax, %xmm0	# _5,
	leaq	_ZSt4cout(%rip), %rdi	#,
	call	_ZNSolsEd@PLT	#
	movq	%rax, %rdx	#, _6
# osm.cpp:95:     std::cout << osm_syscall_time(6000) << std::endl;
	.loc 1 95 49
	movq	_ZSt4endlIcSt11char_traitsIcEERSt13basic_ostreamIT_T0_ES6_@GOTPCREL(%rip), %rax	#, tmp92
	movq	%rax, %rsi	# tmp92,
	movq	%rdx, %rdi	# _6,
	call	_ZNSolsEPFRSoS_E@PLT	#
# osm.cpp:96: }
	.loc 1 96 1
	movl	$0, %eax	#, _20
	popq	%rbp	#
	.cfi_def_cfa 7, 8
	ret	
	.cfi_endproc
.LFE1805:
	.size	main, .-main
	.type	_Z41__static_initialization_and_destruction_0ii, @function
_Z41__static_initialization_and_destruction_0ii:
.LFB2304:
	.loc 1 96 1
	.cfi_startproc
	pushq	%rbp	#
	.cfi_def_cfa_offset 16
	.cfi_offset 6, -16
	movq	%rsp, %rbp	#,
	.cfi_def_cfa_register 6
	subq	$16, %rsp	#,
	movl	%edi, -4(%rbp)	# __initialize_p, __initialize_p
	movl	%esi, -8(%rbp)	# __priority, __priority
# osm.cpp:96: }
	.loc 1 96 1
	cmpl	$1, -4(%rbp)	#, __initialize_p
	jne	.L30	#,
# osm.cpp:96: }
	.loc 1 96 1 is_stmt 0 discriminator 1
	cmpl	$65535, -8(%rbp)	#, __priority
	jne	.L30	#,
# /usr/include/c++/10/iostream:74:   static ios_base::Init __ioinit;
	.file 2 "/usr/include/c++/10/iostream"
	.loc 2 74 25 is_stmt 1
	leaq	_ZStL8__ioinit(%rip), %rdi	#,
	call	_ZNSt8ios_base4InitC1Ev@PLT	#
	leaq	__dso_handle(%rip), %rdx	#,
	leaq	_ZStL8__ioinit(%rip), %rsi	#,
	movq	_ZNSt8ios_base4InitD1Ev@GOTPCREL(%rip), %rax	#, tmp82
	movq	%rax, %rdi	# tmp82,
	call	__cxa_atexit@PLT	#
.L30:
# osm.cpp:96: }
	.loc 1 96 1
	nop	
	leave	
	.cfi_def_cfa 7, 8
	ret	
	.cfi_endproc
.LFE2304:
	.size	_Z41__static_initialization_and_destruction_0ii, .-_Z41__static_initialization_and_destruction_0ii
	.type	_GLOBAL__sub_I__Z14empty_functionv, @function
_GLOBAL__sub_I__Z14empty_functionv:
.LFB2305:
	.loc 1 96 1
	.cfi_startproc
	pushq	%rbp	#
	.cfi_def_cfa_offset 16
	.cfi_offset 6, -16
	movq	%rsp, %rbp	#,
	.cfi_def_cfa_register 6
# osm.cpp:96: }
	.loc 1 96 1
	movl	$65535, %esi	#,
	movl	$1, %edi	#,
	call	_Z41__static_initialization_and_destruction_0ii	#
	popq	%rbp	#
	.cfi_def_cfa 7, 8
	ret	
	.cfi_endproc
.LFE2305:
	.size	_GLOBAL__sub_I__Z14empty_functionv, .-_GLOBAL__sub_I__Z14empty_functionv
	.section	.init_array,"aw"
	.align 8
	.quad	_GLOBAL__sub_I__Z14empty_functionv
	.section	.rodata
	.align 8
.LC0:
	.long	0
	.long	-1074790400
	.align 8
.LC2:
	.long	0
	.long	1093567616
	.align 8
.LC3:
	.long	0
	.long	1083129856
	.text
.Letext0:
	.file 3 "/usr/include/x86_64-linux-gnu/bits/types.h"
	.file 4 "/usr/include/x86_64-linux-gnu/bits/types/struct_timeval.h"
	.file 5 "/usr/include/c++/10/cmath"
	.file 6 "/usr/include/c++/10/cwchar"
	.file 7 "/usr/include/c++/10/bits/exception_ptr.h"
	.file 8 "/usr/include/x86_64-linux-gnu/c++/10/bits/c++config.h"
	.file 9 "/usr/include/c++/10/type_traits"
	.file 10 "/usr/include/c++/10/bits/stl_pair.h"
	.file 11 "/usr/include/c++/10/debug/debug.h"
	.file 12 "/usr/include/c++/10/bits/char_traits.h"
	.file 13 "/usr/include/c++/10/cstdint"
	.file 14 "/usr/include/c++/10/clocale"
	.file 15 "/usr/include/c++/10/cstdlib"
	.file 16 "/usr/include/c++/10/cstdio"
	.file 17 "/usr/include/c++/10/bits/basic_string.h"
	.file 18 "/usr/include/c++/10/system_error"
	.file 19 "/usr/include/c++/10/bits/ios_base.h"
	.file 20 "/usr/include/c++/10/cwctype"
	.file 21 "/usr/include/c++/10/iosfwd"
	.file 22 "/usr/include/c++/10/bits/predefined_ops.h"
	.file 23 "/usr/include/math.h"
	.file 24 "/usr/lib/gcc/x86_64-linux-gnu/10/include/stddef.h"
	.file 25 "/usr/include/stdlib.h"
	.file 26 "/usr/include/x86_64-linux-gnu/bits/stdint-intn.h"
	.file 27 "<built-in>"
	.file 28 "/usr/include/x86_64-linux-gnu/bits/types/wint_t.h"
	.file 29 "/usr/include/x86_64-linux-gnu/bits/types/__mbstate_t.h"
	.file 30 "/usr/include/x86_64-linux-gnu/bits/types/mbstate_t.h"
	.file 31 "/usr/include/x86_64-linux-gnu/bits/types/__FILE.h"
	.file 32 "/usr/include/x86_64-linux-gnu/bits/types/struct_FILE.h"
	.file 33 "/usr/include/x86_64-linux-gnu/bits/types/FILE.h"
	.file 34 "/usr/include/wchar.h"
	.file 35 "/usr/include/x86_64-linux-gnu/bits/types/struct_tm.h"
	.file 36 "/usr/include/x86_64-linux-gnu/bits/stdint-uintn.h"
	.file 37 "/usr/include/stdint.h"
	.file 38 "/usr/include/locale.h"
	.file 39 "/usr/include/x86_64-linux-gnu/c++/10/bits/atomic_word.h"
	.file 40 "/usr/include/x86_64-linux-gnu/bits/types/__fpos_t.h"
	.file 41 "/usr/include/stdio.h"
	.file 42 "/usr/include/x86_64-linux-gnu/bits/wctype-wchar.h"
	.file 43 "/usr/include/wctype.h"
	.section	.note.GNU-stack,"",@progbits
