	.file	"osm.cpp"
# GNU C++14 (Debian 10.2.1-6) version 10.2.1 20210110 (x86_64-linux-gnu)
#	compiled by GNU C version 10.2.1 20210110, GMP version 6.2.1, MPFR version 4.1.0, MPC version 1.2.0, isl version isl-0.23-GMP

# GGC heuristics: --param ggc-min-expand=100 --param ggc-min-heapsize=131072
# options passed:  -imultiarch x86_64-linux-gnu -D_GNU_SOURCE osm.cpp
# -mtune=generic -march=x86-64 -auxbase-strip osm.s -g -fverbose-asm
# -fasynchronous-unwind-tables
# options enabled:  -fPIC -fPIE -faggressive-loop-optimizations
# -fallocation-dce -fasynchronous-unwind-tables -fauto-inc-dec
# -fdelete-null-pointer-checks -fdwarf2-cfi-asm -fearly-inlining
# -feliminate-unused-debug-symbols -feliminate-unused-debug-types
# -fexceptions -ffp-int-builtin-inexact -ffunction-cse -fgcse-lm
# -fgnu-unique -fident -finline-atomics -fipa-stack-alignment
# -fira-hoist-pressure -fira-share-save-slots -fira-share-spill-slots
# -fivopts -fkeep-static-consts -fleading-underscore -flifetime-dse
# -fmath-errno -fmerge-debug-strings -fpeephole -fplt
# -fprefetch-loop-arrays -freg-struct-return
# -fsched-critical-path-heuristic -fsched-dep-count-heuristic
# -fsched-group-heuristic -fsched-interblock -fsched-last-insn-heuristic
# -fsched-rank-heuristic -fsched-spec -fsched-spec-insn-heuristic
# -fsched-stalled-insns-dep -fschedule-fusion -fsemantic-interposition
# -fshow-column -fshrink-wrap-separate -fsigned-zeros
# -fsplit-ivs-in-unroller -fssa-backprop -fstdarg-opt
# -fstrict-volatile-bitfields -fsync-libcalls -ftrapping-math -ftree-cselim
# -ftree-forwprop -ftree-loop-if-convert -ftree-loop-im -ftree-loop-ivcanon
# -ftree-loop-optimize -ftree-parallelize-loops= -ftree-phiprop
# -ftree-reassoc -ftree-scev-cprop -funit-at-a-time -funwind-tables
# -fverbose-asm -fzero-initialized-in-bss -m128bit-long-double -m64 -m80387
# -malign-stringops -mavx256-split-unaligned-load
# -mavx256-split-unaligned-store -mfancy-math-387 -mfp-ret-in-387 -mfxsr
# -mglibc -mieee-fp -mlong-double-80 -mmmx -mno-sse4 -mpush-args -mred-zone
# -msse -msse2 -mstv -mtls-direct-seg-refs -mvzeroupper

	.text
.Ltext0:
	.section	.rodata
	.type	_ZStL19piecewise_construct, @object
	.size	_ZStL19piecewise_construct, 1
_ZStL19piecewise_construct:
	.zero	1
	.local	_ZStL8__ioinit
	.comm	_ZStL8__ioinit,1,1
	.text
	.globl	_Z14empty_functionv
	.type	_Z14empty_functionv, @function
_Z14empty_functionv:
.LFB1801:
	.file 1 "osm.cpp"
	.loc 1 7 23
	.cfi_startproc
	pushq	%rbp	#
	.cfi_def_cfa_offset 16
	.cfi_offset 6, -16
	movq	%rsp, %rbp	#,
	.cfi_def_cfa_register 6
# osm.cpp:9: }
	.loc 1 9 1
	nop	
	popq	%rbp	#
	.cfi_def_cfa 7, 8
	ret	
	.cfi_endproc
.LFE1801:
	.size	_Z14empty_functionv, .-_Z14empty_functionv
	.globl	_Z18osm_operation_timej
	.type	_Z18osm_operation_timej, @function
_Z18osm_operation_timej:
.LFB1802:
	.loc 1 11 52
	.cfi_startproc
	pushq	%rbp	#
	.cfi_def_cfa_offset 16
	.cfi_offset 6, -16
	movq	%rsp, %rbp	#,
	.cfi_def_cfa_register 6
	subq	$96, %rsp	#,
	movl	%edi, -84(%rbp)	# iterations, iterations
# osm.cpp:12:     if (iterations == 0) {
	.loc 1 12 5
	cmpl	$0, -84(%rbp)	#, iterations
	jne	.L3	#,
# osm.cpp:13:         return -1;
	.loc 1 13 17
	movsd	.LC0(%rip), %xmm0	#, _14
	jmp	.L9	#
.L3:
# osm.cpp:19:     int a = 1;
	.loc 1 19 9
	movl	$1, -8(%rbp)	#, a
# osm.cpp:20:     int b = 1;
	.loc 1 20 9
	movl	$1, -12(%rbp)	#, b
# osm.cpp:21:     gettimeofday(&start_time, nullptr);
	.loc 1 21 17
	leaq	-64(%rbp), %rax	#, tmp96
	movl	$0, %esi	#,
	movq	%rax, %rdi	# tmp96,
	call	gettimeofday@PLT	#
.LBB2:
# osm.cpp:22:     for (int i = 0; i < iterations; i += 5) {
	.loc 1 22 14
	movl	$0, -4(%rbp)	#, i
.L6:
# osm.cpp:22:     for (int i = 0; i < iterations; i += 5) {
	.loc 1 22 21 discriminator 3
	movl	-4(%rbp), %eax	# i, i.0_1
# osm.cpp:22:     for (int i = 0; i < iterations; i += 5) {
	.loc 1 22 23 discriminator 3
	cmpl	%eax, -84(%rbp)	# i.0_1, iterations
	jbe	.L5	#,
# osm.cpp:23:         res = a + b;
	.loc 1 23 13 discriminator 2
	movl	-8(%rbp), %edx	# a, tmp101
	movl	-12(%rbp), %eax	# b, tmp102
	addl	%edx, %eax	# tmp101, tmp100
	movl	%eax, -16(%rbp)	# tmp100, res
# osm.cpp:24:         res = a + b;
	.loc 1 24 13 discriminator 2
	movl	-8(%rbp), %edx	# a, tmp107
	movl	-12(%rbp), %eax	# b, tmp108
	addl	%edx, %eax	# tmp107, tmp106
	movl	%eax, -16(%rbp)	# tmp106, res
# osm.cpp:25:         res = a + b;
	.loc 1 25 13 discriminator 2
	movl	-8(%rbp), %edx	# a, tmp113
	movl	-12(%rbp), %eax	# b, tmp114
	addl	%edx, %eax	# tmp113, tmp112
	movl	%eax, -16(%rbp)	# tmp112, res
# osm.cpp:26:         res = a + b;
	.loc 1 26 13 discriminator 2
	movl	-8(%rbp), %edx	# a, tmp119
	movl	-12(%rbp), %eax	# b, tmp120
	addl	%edx, %eax	# tmp119, tmp118
	movl	%eax, -16(%rbp)	# tmp118, res
# osm.cpp:27:         res = a + b;
	.loc 1 27 13 discriminator 2
	movl	-8(%rbp), %edx	# a, tmp125
	movl	-12(%rbp), %eax	# b, tmp126
	addl	%edx, %eax	# tmp125, tmp124
	movl	%eax, -16(%rbp)	# tmp124, res
# osm.cpp:22:     for (int i = 0; i < iterations; i += 5) {
	.loc 1 22 39 discriminator 2
	addl	$5, -4(%rbp)	#, i
# osm.cpp:22:     for (int i = 0; i < iterations; i += 5) {
	.loc 1 22 5 discriminator 2
	jmp	.L6	#
.L5:
.LBE2:
# osm.cpp:30:     gettimeofday(&end_time, nullptr);
	.loc 1 30 17
	leaq	-80(%rbp), %rax	#, tmp127
	movl	$0, %esi	#,
	movq	%rax, %rdi	# tmp127,
	call	gettimeofday@PLT	#
# osm.cpp:32:     double sec_diff = 0, micro_sec_diff = 0, final_res;
	.loc 1 32 12
	pxor	%xmm0, %xmm0	# tmp128
	movsd	%xmm0, -24(%rbp)	# tmp128, sec_diff
# osm.cpp:32:     double sec_diff = 0, micro_sec_diff = 0, final_res;
	.loc 1 32 26
	pxor	%xmm0, %xmm0	# tmp129
	movsd	%xmm0, -32(%rbp)	# tmp129, micro_sec_diff
# osm.cpp:33:     sec_diff += (end_time.tv_sec - start_time.tv_sec);
	.loc 1 33 27
	movq	-80(%rbp), %rax	# end_time.tv_sec, _2
# osm.cpp:33:     sec_diff += (end_time.tv_sec - start_time.tv_sec);
	.loc 1 33 47
	movq	-64(%rbp), %rdx	# start_time.tv_sec, _3
# osm.cpp:33:     sec_diff += (end_time.tv_sec - start_time.tv_sec);
	.loc 1 33 34
	subq	%rdx, %rax	# _3, _4
# osm.cpp:33:     sec_diff += (end_time.tv_sec - start_time.tv_sec);
	.loc 1 33 14
	pxor	%xmm0, %xmm0	# _5
	cvtsi2sdq	%rax, %xmm0	# _4, _5
	movsd	-24(%rbp), %xmm1	# sec_diff, tmp131
	addsd	%xmm1, %xmm0	# tmp131, tmp130
	movsd	%xmm0, -24(%rbp)	# tmp130, sec_diff
# osm.cpp:34:     sec_diff = sec_diff * 1000000;
	.loc 1 34 14
	movsd	-24(%rbp), %xmm1	# sec_diff, tmp133
	movsd	.LC2(%rip), %xmm0	#, tmp134
	mulsd	%xmm1, %xmm0	# tmp133, tmp132
	movsd	%xmm0, -24(%rbp)	# tmp132, sec_diff
# osm.cpp:35:     micro_sec_diff += (end_time.tv_usec - start_time.tv_usec);
	.loc 1 35 33
	movq	-72(%rbp), %rax	# end_time.tv_usec, _6
# osm.cpp:35:     micro_sec_diff += (end_time.tv_usec - start_time.tv_usec);
	.loc 1 35 54
	movq	-56(%rbp), %rdx	# start_time.tv_usec, _7
# osm.cpp:35:     micro_sec_diff += (end_time.tv_usec - start_time.tv_usec);
	.loc 1 35 41
	subq	%rdx, %rax	# _7, _8
# osm.cpp:35:     micro_sec_diff += (end_time.tv_usec - start_time.tv_usec);
	.loc 1 35 20
	pxor	%xmm0, %xmm0	# _9
	cvtsi2sdq	%rax, %xmm0	# _8, _9
	movsd	-32(%rbp), %xmm1	# micro_sec_diff, tmp136
	addsd	%xmm1, %xmm0	# tmp136, tmp135
	movsd	%xmm0, -32(%rbp)	# tmp135, micro_sec_diff
# osm.cpp:36:     final_res = (sec_diff + micro_sec_diff) * 1000 / (iterations);
	.loc 1 36 27
	movsd	-24(%rbp), %xmm0	# sec_diff, tmp137
	movapd	%xmm0, %xmm1	# tmp137, tmp137
	addsd	-32(%rbp), %xmm1	# micro_sec_diff, tmp137
# osm.cpp:36:     final_res = (sec_diff + micro_sec_diff) * 1000 / (iterations);
	.loc 1 36 45
	movsd	.LC3(%rip), %xmm0	#, tmp138
	mulsd	%xmm0, %xmm1	# tmp138, _11
# osm.cpp:36:     final_res = (sec_diff + micro_sec_diff) * 1000 / (iterations);
	.loc 1 36 52
	movl	-84(%rbp), %eax	# iterations, tmp139
	testq	%rax, %rax	# tmp139
	js	.L7	#,
	pxor	%xmm0, %xmm0	# _12
	cvtsi2sdq	%rax, %xmm0	# tmp139, _12
	jmp	.L8	#
.L7:
	movq	%rax, %rdx	# tmp139, tmp141
	shrq	%rdx	# tmp141
	andl	$1, %eax	#, tmp142
	orq	%rax, %rdx	# tmp142, tmp141
	pxor	%xmm0, %xmm0	# tmp140
	cvtsi2sdq	%rdx, %xmm0	# tmp141, tmp140
	addsd	%xmm0, %xmm0	# tmp140, _12
.L8:
# osm.cpp:36:     final_res = (sec_diff + micro_sec_diff) * 1000 / (iterations);
	.loc 1 36 15
	divsd	%xmm0, %xmm1	# _12, tmp143
	movsd	%xmm1, -40(%rbp)	# tmp143, final_res
# osm.cpp:37:     return final_res;
	.loc 1 37 12
	movsd	-40(%rbp), %xmm0	# final_res, _14
.L9:
# osm.cpp:38: }
	.loc 1 38 1 discriminator 1
	movq	%xmm0, %rax	# _14, <retval>
	movq	%rax, %xmm0	# <retval>,
	leave	
	.cfi_def_cfa 7, 8
	ret	
	.cfi_endproc
.LFE1802:
	.size	_Z18osm_operation_timej, .-_Z18osm_operation_timej
	.globl	_Z17osm_function_timej
	.type	_Z17osm_function_timej, @function
_Z17osm_function_timej:
.LFB1803:
	.loc 1 40 51
	.cfi_startproc
	pushq	%rbp	#
	.cfi_def_cfa_offset 16
	.cfi_offset 6, -16
	movq	%rsp, %rbp	#,
	.cfi_def_cfa_register 6
	subq	$80, %rsp	#,
	movl	%edi, -68(%rbp)	# iterations, iterations
# osm.cpp:41:     if (iterations == 0) {
	.loc 1 41 5
	cmpl	$0, -68(%rbp)	#, iterations
	jne	.L11	#,
# osm.cpp:42:         return -1;
	.loc 1 42 17
	movsd	.LC0(%rip), %xmm0	#, _14
	jmp	.L17	#
.L11:
# osm.cpp:47:     gettimeofday(&start_time, nullptr);
	.loc 1 47 17
	leaq	-48(%rbp), %rax	#, tmp96
	movl	$0, %esi	#,
	movq	%rax, %rdi	# tmp96,
	call	gettimeofday@PLT	#
.LBB3:
# osm.cpp:48:     for (int i = 0; i < iterations; i += 5) {
	.loc 1 48 14
	movl	$0, -4(%rbp)	#, i
.L14:
# osm.cpp:48:     for (int i = 0; i < iterations; i += 5) {
	.loc 1 48 21 discriminator 3
	movl	-4(%rbp), %eax	# i, i.1_1
# osm.cpp:48:     for (int i = 0; i < iterations; i += 5) {
	.loc 1 48 23 discriminator 3
	cmpl	%eax, -68(%rbp)	# i.1_1, iterations
	jbe	.L13	#,
# osm.cpp:49:         empty_function();
	.loc 1 49 23 discriminator 2
	call	_Z14empty_functionv	#
# osm.cpp:50:         empty_function();
	.loc 1 50 23 discriminator 2
	call	_Z14empty_functionv	#
# osm.cpp:51:         empty_function();
	.loc 1 51 23 discriminator 2
	call	_Z14empty_functionv	#
# osm.cpp:52:         empty_function();
	.loc 1 52 23 discriminator 2
	call	_Z14empty_functionv	#
# osm.cpp:53:         empty_function();
	.loc 1 53 23 discriminator 2
	call	_Z14empty_functionv	#
# osm.cpp:48:     for (int i = 0; i < iterations; i += 5) {
	.loc 1 48 39 discriminator 2
	addl	$5, -4(%rbp)	#, i
# osm.cpp:48:     for (int i = 0; i < iterations; i += 5) {
	.loc 1 48 5 discriminator 2
	jmp	.L14	#
.L13:
.LBE3:
# osm.cpp:56:     gettimeofday(&end_time, nullptr);
	.loc 1 56 17
	leaq	-64(%rbp), %rax	#, tmp97
	movl	$0, %esi	#,
	movq	%rax, %rdi	# tmp97,
	call	gettimeofday@PLT	#
# osm.cpp:58:     double sec_diff = 0, micro_sec_diff = 0, final_res;
	.loc 1 58 12
	pxor	%xmm0, %xmm0	# tmp98
	movsd	%xmm0, -16(%rbp)	# tmp98, sec_diff
# osm.cpp:58:     double sec_diff = 0, micro_sec_diff = 0, final_res;
	.loc 1 58 26
	pxor	%xmm0, %xmm0	# tmp99
	movsd	%xmm0, -24(%rbp)	# tmp99, micro_sec_diff
# osm.cpp:59:     sec_diff += (end_time.tv_sec - start_time.tv_sec);
	.loc 1 59 27
	movq	-64(%rbp), %rax	# end_time.tv_sec, _2
# osm.cpp:59:     sec_diff += (end_time.tv_sec - start_time.tv_sec);
	.loc 1 59 47
	movq	-48(%rbp), %rdx	# start_time.tv_sec, _3
# osm.cpp:59:     sec_diff += (end_time.tv_sec - start_time.tv_sec);
	.loc 1 59 34
	subq	%rdx, %rax	# _3, _4
# osm.cpp:59:     sec_diff += (end_time.tv_sec - start_time.tv_sec);
	.loc 1 59 14
	pxor	%xmm0, %xmm0	# _5
	cvtsi2sdq	%rax, %xmm0	# _4, _5
	movsd	-16(%rbp), %xmm1	# sec_diff, tmp101
	addsd	%xmm1, %xmm0	# tmp101, tmp100
	movsd	%xmm0, -16(%rbp)	# tmp100, sec_diff
# osm.cpp:60:     sec_diff = sec_diff * 1000000;
	.loc 1 60 14
	movsd	-16(%rbp), %xmm1	# sec_diff, tmp103
	movsd	.LC2(%rip), %xmm0	#, tmp104
	mulsd	%xmm1, %xmm0	# tmp103, tmp102
	movsd	%xmm0, -16(%rbp)	# tmp102, sec_diff
# osm.cpp:61:     micro_sec_diff += (end_time.tv_usec - start_time.tv_usec);
	.loc 1 61 33
	movq	-56(%rbp), %rax	# end_time.tv_usec, _6
# osm.cpp:61:     micro_sec_diff += (end_time.tv_usec - start_time.tv_usec);
	.loc 1 61 54
	movq	-40(%rbp), %rdx	# start_time.tv_usec, _7
# osm.cpp:61:     micro_sec_diff += (end_time.tv_usec - start_time.tv_usec);
	.loc 1 61 41
	subq	%rdx, %rax	# _7, _8
# osm.cpp:61:     micro_sec_diff += (end_time.tv_usec - start_time.tv_usec);
	.loc 1 61 20
	pxor	%xmm0, %xmm0	# _9
	cvtsi2sdq	%rax, %xmm0	# _8, _9
	movsd	-24(%rbp), %xmm1	# micro_sec_diff, tmp106
	addsd	%xmm1, %xmm0	# tmp106, tmp105
	movsd	%xmm0, -24(%rbp)	# tmp105, micro_sec_diff
# osm.cpp:62:     final_res = (sec_diff + micro_sec_diff) * 1000 / (iterations);
	.loc 1 62 27
	movsd	-16(%rbp), %xmm0	# sec_diff, tmp107
	movapd	%xmm0, %xmm1	# tmp107, tmp107
	addsd	-24(%rbp), %xmm1	# micro_sec_diff, tmp107
# osm.cpp:62:     final_res = (sec_diff + micro_sec_diff) * 1000 / (iterations);
	.loc 1 62 45
	movsd	.LC3(%rip), %xmm0	#, tmp108
	mulsd	%xmm0, %xmm1	# tmp108, _11
# osm.cpp:62:     final_res = (sec_diff + micro_sec_diff) * 1000 / (iterations);
	.loc 1 62 52
	movl	-68(%rbp), %eax	# iterations, tmp109
	testq	%rax, %rax	# tmp109
	js	.L15	#,
	pxor	%xmm0, %xmm0	# _12
	cvtsi2sdq	%rax, %xmm0	# tmp109, _12
	jmp	.L16	#
.L15:
	movq	%rax, %rdx	# tmp109, tmp111
	shrq	%rdx	# tmp111
	andl	$1, %eax	#, tmp112
	orq	%rax, %rdx	# tmp112, tmp111
	pxor	%xmm0, %xmm0	# tmp110
	cvtsi2sdq	%rdx, %xmm0	# tmp111, tmp110
	addsd	%xmm0, %xmm0	# tmp110, _12
.L16:
# osm.cpp:62:     final_res = (sec_diff + micro_sec_diff) * 1000 / (iterations);
	.loc 1 62 15
	divsd	%xmm0, %xmm1	# _12, tmp113
	movsd	%xmm1, -32(%rbp)	# tmp113, final_res
# osm.cpp:63:     return final_res;
	.loc 1 63 12
	movsd	-32(%rbp), %xmm0	# final_res, _14
.L17:
# osm.cpp:65: }
	.loc 1 65 1 discriminator 1
	movq	%xmm0, %rax	# _14, <retval>
	movq	%rax, %xmm0	# <retval>,
	leave	
	.cfi_def_cfa 7, 8
	ret	
	.cfi_endproc
.LFE1803:
	.size	_Z17osm_function_timej, .-_Z17osm_function_timej
	.globl	_Z16osm_syscall_timej
	.type	_Z16osm_syscall_timej, @function
_Z16osm_syscall_timej:
.LFB1804:
	.loc 1 67 50
	.cfi_startproc
	pushq	%rbp	#
	.cfi_def_cfa_offset 16
	.cfi_offset 6, -16
	movq	%rsp, %rbp	#,
	.cfi_def_cfa_register 6
	pushq	%rbx	#
	subq	$88, %rsp	#,
	.cfi_offset 3, -24
	movl	%edi, -84(%rbp)	# iterations, iterations
# osm.cpp:68:     if (iterations == 0) {
	.loc 1 68 5
	cmpl	$0, -84(%rbp)	#, iterations
	jne	.L19	#,
# osm.cpp:69:         return -1;
	.loc 1 69 17
	movsd	.LC0(%rip), %xmm0	#, _14
	jmp	.L25	#
.L19:
# osm.cpp:73:     gettimeofday(&start_time, nullptr);
	.loc 1 73 17
	leaq	-64(%rbp), %rax	#, tmp96
	movl	$0, %esi	#,
	movq	%rax, %rdi	# tmp96,
	call	gettimeofday@PLT	#
.LBB4:
# osm.cpp:75:     for (int i = 0; i < iterations; i += 5) {
	.loc 1 75 14
	movl	$0, -20(%rbp)	#, i
.L22:
# osm.cpp:75:     for (int i = 0; i < iterations; i += 5) {
	.loc 1 75 21 discriminator 3
	movl	-20(%rbp), %eax	# i, i.2_1
# osm.cpp:75:     for (int i = 0; i < iterations; i += 5) {
	.loc 1 75 23 discriminator 3
	cmpl	%eax, -84(%rbp)	# i.2_1, iterations
	jbe	.L21	#,
# osm.cpp:76:         OSM_NULLSYSCALL;
	.loc 1 76 9 discriminator 2
	movl	$-1, %eax	#, tmp97
	movl	$0, %esi	#, tmp98
	movl	$0, %ecx	#, tmp99
	movl	$0, %edx	#, tmp100
	movl	%esi, %ebx	# tmp98, tmp98
#APP
# 76 "osm.cpp" 1
	int $0x80 
# 0 "" 2
# osm.cpp:77:         OSM_NULLSYSCALL;
	.loc 1 77 9 discriminator 2
#NO_APP
	movl	$-1, %eax	#, tmp101
	movl	$0, %esi	#, tmp102
	movl	$0, %ecx	#, tmp103
	movl	$0, %edx	#, tmp104
	movl	%esi, %ebx	# tmp102, tmp102
#APP
# 77 "osm.cpp" 1
	int $0x80 
# 0 "" 2
# osm.cpp:78:         OSM_NULLSYSCALL;
	.loc 1 78 9 discriminator 2
#NO_APP
	movl	$-1, %eax	#, tmp105
	movl	$0, %esi	#, tmp106
	movl	$0, %ecx	#, tmp107
	movl	$0, %edx	#, tmp108
	movl	%esi, %ebx	# tmp106, tmp106
#APP
# 78 "osm.cpp" 1
	int $0x80 
# 0 "" 2
# osm.cpp:79:         OSM_NULLSYSCALL;
	.loc 1 79 9 discriminator 2
#NO_APP
	movl	$-1, %eax	#, tmp109
	movl	$0, %esi	#, tmp110
	movl	$0, %ecx	#, tmp111
	movl	$0, %edx	#, tmp112
	movl	%esi, %ebx	# tmp110, tmp110
#APP
# 79 "osm.cpp" 1
	int $0x80 
# 0 "" 2
# osm.cpp:80:         OSM_NULLSYSCALL;
	.loc 1 80 9 discriminator 2
#NO_APP
	movl	$-1, %eax	#, tmp113
	movl	$0, %esi	#, tmp114
	movl	$0, %ecx	#, tmp115
	movl	$0, %edx	#, tmp116
	movl	%esi, %ebx	# tmp114, tmp114
#APP
# 80 "osm.cpp" 1
	int $0x80 
# 0 "" 2
# osm.cpp:75:     for (int i = 0; i < iterations; i += 5) {
	.loc 1 75 39 discriminator 2
#NO_APP
	addl	$5, -20(%rbp)	#, i
# osm.cpp:75:     for (int i = 0; i < iterations; i += 5) {
	.loc 1 75 5 discriminator 2
	jmp	.L22	#
.L21:
.LBE4:
# osm.cpp:82:     gettimeofday(&end_time, nullptr);
	.loc 1 82 17
	leaq	-80(%rbp), %rax	#, tmp117
	movl	$0, %esi	#,
	movq	%rax, %rdi	# tmp117,
	call	gettimeofday@PLT	#
# osm.cpp:84:     double sec_diff = 0, micro_sec_diff = 0, final_res;
	.loc 1 84 12
	pxor	%xmm0, %xmm0	# tmp118
	movsd	%xmm0, -32(%rbp)	# tmp118, sec_diff
# osm.cpp:84:     double sec_diff = 0, micro_sec_diff = 0, final_res;
	.loc 1 84 26
	pxor	%xmm0, %xmm0	# tmp119
	movsd	%xmm0, -40(%rbp)	# tmp119, micro_sec_diff
# osm.cpp:85:     sec_diff += (end_time.tv_sec - start_time.tv_sec);
	.loc 1 85 27
	movq	-80(%rbp), %rax	# end_time.tv_sec, _2
# osm.cpp:85:     sec_diff += (end_time.tv_sec - start_time.tv_sec);
	.loc 1 85 47
	movq	-64(%rbp), %rdx	# start_time.tv_sec, _3
# osm.cpp:85:     sec_diff += (end_time.tv_sec - start_time.tv_sec);
	.loc 1 85 34
	subq	%rdx, %rax	# _3, _4
# osm.cpp:85:     sec_diff += (end_time.tv_sec - start_time.tv_sec);
	.loc 1 85 14
	pxor	%xmm0, %xmm0	# _5
	cvtsi2sdq	%rax, %xmm0	# _4, _5
	movsd	-32(%rbp), %xmm1	# sec_diff, tmp121
	addsd	%xmm1, %xmm0	# tmp121, tmp120
	movsd	%xmm0, -32(%rbp)	# tmp120, sec_diff
# osm.cpp:86:     sec_diff = sec_diff * 1000000;
	.loc 1 86 14
	movsd	-32(%rbp), %xmm1	# sec_diff, tmp123
	movsd	.LC2(%rip), %xmm0	#, tmp124
	mulsd	%xmm1, %xmm0	# tmp123, tmp122
	movsd	%xmm0, -32(%rbp)	# tmp122, sec_diff
# osm.cpp:87:     micro_sec_diff += (end_time.tv_usec - start_time.tv_usec);
	.loc 1 87 33
	movq	-72(%rbp), %rax	# end_time.tv_usec, _6
# osm.cpp:87:     micro_sec_diff += (end_time.tv_usec - start_time.tv_usec);
	.loc 1 87 54
	movq	-56(%rbp), %rdx	# start_time.tv_usec, _7
# osm.cpp:87:     micro_sec_diff += (end_time.tv_usec - start_time.tv_usec);
	.loc 1 87 41
	subq	%rdx, %rax	# _7, _8
# osm.cpp:87:     micro_sec_diff += (end_time.tv_usec - start_time.tv_usec);
	.loc 1 87 20
	pxor	%xmm0, %xmm0	# _9
	cvtsi2sdq	%rax, %xmm0	# _8, _9
	movsd	-40(%rbp), %xmm1	# micro_sec_diff, tmp126
	addsd	%xmm1, %xmm0	# tmp126, tmp125
	movsd	%xmm0, -40(%rbp)	# tmp125, micro_sec_diff
# osm.cpp:88:     final_res = (sec_diff + micro_sec_diff) * 1000 / (iterations);
	.loc 1 88 27
	movsd	-32(%rbp), %xmm0	# sec_diff, tmp127
	movapd	%xmm0, %xmm1	# tmp127, tmp127
	addsd	-40(%rbp), %xmm1	# micro_sec_diff, tmp127
# osm.cpp:88:     final_res = (sec_diff + micro_sec_diff) * 1000 / (iterations);
	.loc 1 88 45
	movsd	.LC3(%rip), %xmm0	#, tmp128
	mulsd	%xmm0, %xmm1	# tmp128, _11
# osm.cpp:88:     final_res = (sec_diff + micro_sec_diff) * 1000 / (iterations);
	.loc 1 88 52
	movl	-84(%rbp), %eax	# iterations, tmp129
	testq	%rax, %rax	# tmp129
	js	.L23	#,
	pxor	%xmm0, %xmm0	# _12
	cvtsi2sdq	%rax, %xmm0	# tmp129, _12
	jmp	.L24	#
.L23:
	movq	%rax, %rdx	# tmp129, tmp131
	shrq	%rdx	# tmp131
	andl	$1, %eax	#, tmp132
	orq	%rax, %rdx	# tmp132, tmp131
	pxor	%xmm0, %xmm0	# tmp130
	cvtsi2sdq	%rdx, %xmm0	# tmp131, tmp130
	addsd	%xmm0, %xmm0	# tmp130, _12
.L24:
# osm.cpp:88:     final_res = (sec_diff + micro_sec_diff) * 1000 / (iterations);
	.loc 1 88 15
	divsd	%xmm0, %xmm1	# _12, tmp133
	movsd	%xmm1, -48(%rbp)	# tmp133, final_res
# osm.cpp:89:     return final_res;
	.loc 1 89 12
	movsd	-48(%rbp), %xmm0	# final_res, _14
.L25:
# osm.cpp:90: }
	.loc 1 90 1 discriminator 1
	movq	%xmm0, %rax	# _14, <retval>
	movq	%rax, %xmm0	# <retval>,
	movq	-8(%rbp), %rbx	#,
	leave	
	.cfi_def_cfa 7, 8
	ret	
	.cfi_endproc
.LFE1804:
	.size	_Z16osm_syscall_timej, .-_Z16osm_syscall_timej
	.globl	main
	.type	main, @function
main:
.LFB1805:
	.loc 1 92 12
	.cfi_startproc
	pushq	%rbp	#
	.cfi_def_cfa_offset 16
	.cfi_offset 6, -16
	movq	%rsp, %rbp	#,
	.cfi_def_cfa_register 6
# osm.cpp:93:     std::cout << osm_operation_time(6000) << std::endl;
	.loc 1 93 41
	movl	$6000, %edi	#,
	call	_Z18osm_operation_timej	#
	movq	%xmm0, %rax	#, _1
	movq	%rax, %xmm0	# _1,
	leaq	_ZSt4cout(%rip), %rdi	#,
	call	_ZNSolsEd@PLT	#
	movq	%rax, %rdx	#, _2
# osm.cpp:93:     std::cout << osm_operation_time(6000) << std::endl;
	.loc 1 93 51
	movq	_ZSt4endlIcSt11char_traitsIcEERSt13basic_ostreamIT_T0_ES6_@GOTPCREL(%rip), %rax	#, tmp90
	movq	%rax, %rsi	# tmp90,
	movq	%rdx, %rdi	# _2,
	call	_ZNSolsEPFRSoS_E@PLT	#
# osm.cpp:94:     std::cout << osm_function_time(6000) << std::endl;
	.loc 1 94 40
	movl	$6000, %edi	#,
	call	_Z17osm_function_timej	#
	movq	%xmm0, %rax	#, _3
	movq	%rax, %xmm0	# _3,
	leaq	_ZSt4cout(%rip), %rdi	#,
	call	_ZNSolsEd@PLT	#
	movq	%rax, %rdx	#, _4
# osm.cpp:94:     std::cout << osm_function_time(6000) << std::endl;
	.loc 1 94 50
	movq	_ZSt4endlIcSt11char_traitsIcEERSt13basic_ostreamIT_T0_ES6_@GOTPCREL(%rip), %rax	#, tmp91
	movq	%rax, %rsi	# tmp91,
	movq	%rdx, %rdi	# _4,
	call	_ZNSolsEPFRSoS_E@PLT	#
# osm.cpp:95:     std::cout << osm_syscall_time(6000) << std::endl;
	.loc 1 95 39
	movl	$6000, %edi	#,
	call	_Z16osm_syscall_timej	#
	movq	%xmm0, %rax	#, _5
	movq	%rax, %xmm0	# _5,
	leaq	_ZSt4cout(%rip), %rdi	#,
	call	_ZNSolsEd@PLT	#
	movq	%rax, %rdx	#, _6
# osm.cpp:95:     std::cout << osm_syscall_time(6000) << std::endl;
	.loc 1 95 49
	movq	_ZSt4endlIcSt11char_traitsIcEERSt13basic_ostreamIT_T0_ES6_@GOTPCREL(%rip), %rax	#, tmp92
	movq	%rax, %rsi	# tmp92,
	movq	%rdx, %rdi	# _6,
	call	_ZNSolsEPFRSoS_E@PLT	#
# osm.cpp:96: }
	.loc 1 96 1
	movl	$0, %eax	#, _20
	popq	%rbp	#
	.cfi_def_cfa 7, 8
	ret	
	.cfi_endproc
.LFE1805:
	.size	main, .-main
	.type	_Z41__static_initialization_and_destruction_0ii, @function
_Z41__static_initialization_and_destruction_0ii:
.LFB2304:
	.loc 1 96 1
	.cfi_startproc
	pushq	%rbp	#
	.cfi_def_cfa_offset 16
	.cfi_offset 6, -16
	movq	%rsp, %rbp	#,
	.cfi_def_cfa_register 6
	subq	$16, %rsp	#,
	movl	%edi, -4(%rbp)	# __initialize_p, __initialize_p
	movl	%esi, -8(%rbp)	# __priority, __priority
# osm.cpp:96: }
	.loc 1 96 1
	cmpl	$1, -4(%rbp)	#, __initialize_p
	jne	.L30	#,
# osm.cpp:96: }
	.loc 1 96 1 is_stmt 0 discriminator 1
	cmpl	$65535, -8(%rbp)	#, __priority
	jne	.L30	#,
# /usr/include/c++/10/iostream:74:   static ios_base::Init __ioinit;
	.file 2 "/usr/include/c++/10/iostream"
	.loc 2 74 25 is_stmt 1
	leaq	_ZStL8__ioinit(%rip), %rdi	#,
	call	_ZNSt8ios_base4InitC1Ev@PLT	#
	leaq	__dso_handle(%rip), %rdx	#,
	leaq	_ZStL8__ioinit(%rip), %rsi	#,
	movq	_ZNSt8ios_base4InitD1Ev@GOTPCREL(%rip), %rax	#, tmp82
	movq	%rax, %rdi	# tmp82,
	call	__cxa_atexit@PLT	#
.L30:
# osm.cpp:96: }
	.loc 1 96 1
	nop	
	leave	
	.cfi_def_cfa 7, 8
	ret	
	.cfi_endproc
.LFE2304:
	.size	_Z41__static_initialization_and_destruction_0ii, .-_Z41__static_initialization_and_destruction_0ii
	.type	_GLOBAL__sub_I__Z14empty_functionv, @function
_GLOBAL__sub_I__Z14empty_functionv:
.LFB2305:
	.loc 1 96 1
	.cfi_startproc
	pushq	%rbp	#
	.cfi_def_cfa_offset 16
	.cfi_offset 6, -16
	movq	%rsp, %rbp	#,
	.cfi_def_cfa_register 6
# osm.cpp:96: }
	.loc 1 96 1
	movl	$65535, %esi	#,
	movl	$1, %edi	#,
	call	_Z41__static_initialization_and_destruction_0ii	#
	popq	%rbp	#
	.cfi_def_cfa 7, 8
	ret	
	.cfi_endproc
.LFE2305:
	.size	_GLOBAL__sub_I__Z14empty_functionv, .-_GLOBAL__sub_I__Z14empty_functionv
	.section	.init_array,"aw"
	.align 8
	.quad	_GLOBAL__sub_I__Z14empty_functionv
	.section	.rodata
	.align 8
.LC0:
	.long	0
	.long	-1074790400
	.align 8
.LC2:
	.long	0
	.long	1093567616
	.align 8
.LC3:
	.long	0
	.long	1083129856
	.text
.Letext0:
	.file 3 "/usr/include/x86_64-linux-gnu/bits/types.h"
	.file 4 "/usr/include/x86_64-linux-gnu/bits/types/struct_timeval.h"
	.file 5 "/usr/include/c++/10/cmath"
	.file 6 "/usr/include/c++/10/cwchar"
	.file 7 "/usr/include/c++/10/bits/exception_ptr.h"
	.file 8 "/usr/include/x86_64-linux-gnu/c++/10/bits/c++config.h"
	.file 9 "/usr/include/c++/10/type_traits"
	.file 10 "/usr/include/c++/10/bits/stl_pair.h"
	.file 11 "/usr/include/c++/10/debug/debug.h"
	.file 12 "/usr/include/c++/10/bits/char_traits.h"
	.file 13 "/usr/include/c++/10/cstdint"
	.file 14 "/usr/include/c++/10/clocale"
	.file 15 "/usr/include/c++/10/cstdlib"
	.file 16 "/usr/include/c++/10/cstdio"
	.file 17 "/usr/include/c++/10/bits/basic_string.h"
	.file 18 "/usr/include/c++/10/system_error"
	.file 19 "/usr/include/c++/10/bits/ios_base.h"
	.file 20 "/usr/include/c++/10/cwctype"
	.file 21 "/usr/include/c++/10/iosfwd"
	.file 22 "/usr/include/c++/10/bits/predefined_ops.h"
	.file 23 "/usr/include/math.h"
	.file 24 "/usr/lib/gcc/x86_64-linux-gnu/10/include/stddef.h"
	.file 25 "/usr/include/stdlib.h"
	.file 26 "/usr/include/x86_64-linux-gnu/bits/stdint-intn.h"
	.file 27 "<built-in>"
	.file 28 "/usr/include/x86_64-linux-gnu/bits/types/wint_t.h"
	.file 29 "/usr/include/x86_64-linux-gnu/bits/types/__mbstate_t.h"
	.file 30 "/usr/include/x86_64-linux-gnu/bits/types/mbstate_t.h"
	.file 31 "/usr/include/x86_64-linux-gnu/bits/types/__FILE.h"
	.file 32 "/usr/include/x86_64-linux-gnu/bits/types/struct_FILE.h"
	.file 33 "/usr/include/x86_64-linux-gnu/bits/types/FILE.h"
	.file 34 "/usr/include/wchar.h"
	.file 35 "/usr/include/x86_64-linux-gnu/bits/types/struct_tm.h"
	.file 36 "/usr/include/x86_64-linux-gnu/bits/stdint-uintn.h"
	.file 37 "/usr/include/stdint.h"
	.file 38 "/usr/include/locale.h"
	.file 39 "/usr/include/x86_64-linux-gnu/c++/10/bits/atomic_word.h"
	.file 40 "/usr/include/x86_64-linux-gnu/bits/types/__fpos_t.h"
	.file 41 "/usr/include/stdio.h"
	.file 42 "/usr/include/x86_64-linux-gnu/bits/wctype-wchar.h"
	.file 43 "/usr/include/wctype.h"
	.section	.debug_info,"",@progbits
.Ldebug_info0:
	.long	0x2628
	.value	0x4
	.long	.Ldebug_abbrev0
	.byte	0x8
	.uleb128 0x1
	.long	.LASF391
	.byte	0x4
	.long	.LASF392
	.long	.LASF393
	.quad	.Ltext0
	.quad	.Letext0-.Ltext0
	.long	.Ldebug_line0
	.uleb128 0x2
	.byte	0x1
	.byte	0x8
	.long	.LASF0
	.uleb128 0x2
	.byte	0x2
	.byte	0x7
	.long	.LASF1
	.uleb128 0x2
	.byte	0x4
	.byte	0x7
	.long	.LASF2
	.uleb128 0x2
	.byte	0x8
	.byte	0x7
	.long	.LASF3
	.uleb128 0x3
	.long	.LASF5
	.byte	0x3
	.byte	0x25
	.byte	0x15
	.long	0x55
	.uleb128 0x2
	.byte	0x1
	.byte	0x6
	.long	.LASF4
	.uleb128 0x3
	.long	.LASF6
	.byte	0x3
	.byte	0x26
	.byte	0x17
	.long	0x2d
	.uleb128 0x3
	.long	.LASF7
	.byte	0x3
	.byte	0x27
	.byte	0x1a
	.long	0x74
	.uleb128 0x2
	.byte	0x2
	.byte	0x5
	.long	.LASF8
	.uleb128 0x3
	.long	.LASF9
	.byte	0x3
	.byte	0x28
	.byte	0x1c
	.long	0x34
	.uleb128 0x3
	.long	.LASF10
	.byte	0x3
	.byte	0x29
	.byte	0x14
	.long	0x98
	.uleb128 0x4
	.long	0x87
	.uleb128 0x5
	.byte	0x4
	.byte	0x5
	.string	"int"
	.uleb128 0x3
	.long	.LASF11
	.byte	0x3
	.byte	0x2a
	.byte	0x16
	.long	0x3b
	.uleb128 0x3
	.long	.LASF12
	.byte	0x3
	.byte	0x2c
	.byte	0x19
	.long	0xb7
	.uleb128 0x2
	.byte	0x8
	.byte	0x5
	.long	.LASF13
	.uleb128 0x3
	.long	.LASF14
	.byte	0x3
	.byte	0x2d
	.byte	0x1b
	.long	0x42
	.uleb128 0x3
	.long	.LASF15
	.byte	0x3
	.byte	0x34
	.byte	0x12
	.long	0x49
	.uleb128 0x3
	.long	.LASF16
	.byte	0x3
	.byte	0x35
	.byte	0x13
	.long	0x5c
	.uleb128 0x3
	.long	.LASF17
	.byte	0x3
	.byte	0x36
	.byte	0x13
	.long	0x68
	.uleb128 0x3
	.long	.LASF18
	.byte	0x3
	.byte	0x37
	.byte	0x14
	.long	0x7b
	.uleb128 0x3
	.long	.LASF19
	.byte	0x3
	.byte	0x38
	.byte	0x13
	.long	0x87
	.uleb128 0x3
	.long	.LASF20
	.byte	0x3
	.byte	0x39
	.byte	0x14
	.long	0x9f
	.uleb128 0x3
	.long	.LASF21
	.byte	0x3
	.byte	0x3a
	.byte	0x13
	.long	0xab
	.uleb128 0x3
	.long	.LASF22
	.byte	0x3
	.byte	0x3b
	.byte	0x14
	.long	0xbe
	.uleb128 0x3
	.long	.LASF23
	.byte	0x3
	.byte	0x48
	.byte	0x12
	.long	0xb7
	.uleb128 0x3
	.long	.LASF24
	.byte	0x3
	.byte	0x49
	.byte	0x1b
	.long	0x42
	.uleb128 0x3
	.long	.LASF25
	.byte	0x3
	.byte	0x98
	.byte	0x19
	.long	0xb7
	.uleb128 0x3
	.long	.LASF26
	.byte	0x3
	.byte	0x99
	.byte	0x1b
	.long	0xb7
	.uleb128 0x3
	.long	.LASF27
	.byte	0x3
	.byte	0xa0
	.byte	0x1a
	.long	0xb7
	.uleb128 0x3
	.long	.LASF28
	.byte	0x3
	.byte	0xa2
	.byte	0x1f
	.long	0xb7
	.uleb128 0x6
	.byte	0x8
	.uleb128 0x7
	.byte	0x8
	.long	0x17a
	.uleb128 0x2
	.byte	0x1
	.byte	0x6
	.long	.LASF29
	.uleb128 0x4
	.long	0x17a
	.uleb128 0x8
	.long	.LASF60
	.byte	0x10
	.byte	0x4
	.byte	0x8
	.byte	0x8
	.long	0x1ae
	.uleb128 0x9
	.long	.LASF30
	.byte	0x4
	.byte	0xa
	.byte	0xc
	.long	0x15a
	.byte	0
	.uleb128 0x9
	.long	.LASF31
	.byte	0x4
	.byte	0xb
	.byte	0x11
	.long	0x166
	.byte	0x8
	.byte	0
	.uleb128 0xa
	.string	"std"
	.byte	0x1b
	.byte	0
	.long	0xcd6
	.uleb128 0xb
	.long	.LASF89
	.byte	0x8
	.value	0x11e
	.byte	0x41
	.uleb128 0xc
	.byte	0x8
	.value	0x11e
	.byte	0x41
	.long	0x1b9
	.uleb128 0xd
	.byte	0x5
	.value	0x429
	.byte	0xb
	.long	0xda8
	.uleb128 0xd
	.byte	0x5
	.value	0x42a
	.byte	0xb
	.long	0xd9c
	.uleb128 0xe
	.byte	0x6
	.byte	0x40
	.byte	0xb
	.long	0xf6f
	.uleb128 0xe
	.byte	0x6
	.byte	0x8d
	.byte	0xb
	.long	0xf0d
	.uleb128 0xe
	.byte	0x6
	.byte	0x8f
	.byte	0xb
	.long	0x111f
	.uleb128 0xe
	.byte	0x6
	.byte	0x90
	.byte	0xb
	.long	0x1136
	.uleb128 0xe
	.byte	0x6
	.byte	0x91
	.byte	0xb
	.long	0x1153
	.uleb128 0xe
	.byte	0x6
	.byte	0x92
	.byte	0xb
	.long	0x1186
	.uleb128 0xe
	.byte	0x6
	.byte	0x93
	.byte	0xb
	.long	0x11a2
	.uleb128 0xe
	.byte	0x6
	.byte	0x94
	.byte	0xb
	.long	0x11c4
	.uleb128 0xe
	.byte	0x6
	.byte	0x95
	.byte	0xb
	.long	0x11e0
	.uleb128 0xe
	.byte	0x6
	.byte	0x96
	.byte	0xb
	.long	0x11fd
	.uleb128 0xe
	.byte	0x6
	.byte	0x97
	.byte	0xb
	.long	0x121e
	.uleb128 0xe
	.byte	0x6
	.byte	0x98
	.byte	0xb
	.long	0x1235
	.uleb128 0xe
	.byte	0x6
	.byte	0x99
	.byte	0xb
	.long	0x1242
	.uleb128 0xe
	.byte	0x6
	.byte	0x9a
	.byte	0xb
	.long	0x1269
	.uleb128 0xe
	.byte	0x6
	.byte	0x9b
	.byte	0xb
	.long	0x128f
	.uleb128 0xe
	.byte	0x6
	.byte	0x9c
	.byte	0xb
	.long	0x12ac
	.uleb128 0xe
	.byte	0x6
	.byte	0x9d
	.byte	0xb
	.long	0x12d8
	.uleb128 0xe
	.byte	0x6
	.byte	0x9e
	.byte	0xb
	.long	0x12f4
	.uleb128 0xe
	.byte	0x6
	.byte	0xa0
	.byte	0xb
	.long	0x130b
	.uleb128 0xe
	.byte	0x6
	.byte	0xa2
	.byte	0xb
	.long	0x132d
	.uleb128 0xe
	.byte	0x6
	.byte	0xa3
	.byte	0xb
	.long	0x134e
	.uleb128 0xe
	.byte	0x6
	.byte	0xa4
	.byte	0xb
	.long	0x136a
	.uleb128 0xe
	.byte	0x6
	.byte	0xa6
	.byte	0xb
	.long	0x1391
	.uleb128 0xe
	.byte	0x6
	.byte	0xa9
	.byte	0xb
	.long	0x13b6
	.uleb128 0xe
	.byte	0x6
	.byte	0xac
	.byte	0xb
	.long	0x13dc
	.uleb128 0xe
	.byte	0x6
	.byte	0xae
	.byte	0xb
	.long	0x1401
	.uleb128 0xe
	.byte	0x6
	.byte	0xb0
	.byte	0xb
	.long	0x141d
	.uleb128 0xe
	.byte	0x6
	.byte	0xb2
	.byte	0xb
	.long	0x143d
	.uleb128 0xe
	.byte	0x6
	.byte	0xb3
	.byte	0xb
	.long	0x145e
	.uleb128 0xe
	.byte	0x6
	.byte	0xb4
	.byte	0xb
	.long	0x1479
	.uleb128 0xe
	.byte	0x6
	.byte	0xb5
	.byte	0xb
	.long	0x1494
	.uleb128 0xe
	.byte	0x6
	.byte	0xb6
	.byte	0xb
	.long	0x14af
	.uleb128 0xe
	.byte	0x6
	.byte	0xb7
	.byte	0xb
	.long	0x14ca
	.uleb128 0xe
	.byte	0x6
	.byte	0xb8
	.byte	0xb
	.long	0x14e5
	.uleb128 0xe
	.byte	0x6
	.byte	0xb9
	.byte	0xb
	.long	0x15b2
	.uleb128 0xe
	.byte	0x6
	.byte	0xba
	.byte	0xb
	.long	0x15c8
	.uleb128 0xe
	.byte	0x6
	.byte	0xbb
	.byte	0xb
	.long	0x15e8
	.uleb128 0xe
	.byte	0x6
	.byte	0xbc
	.byte	0xb
	.long	0x1608
	.uleb128 0xe
	.byte	0x6
	.byte	0xbd
	.byte	0xb
	.long	0x1628
	.uleb128 0xe
	.byte	0x6
	.byte	0xbe
	.byte	0xb
	.long	0x1654
	.uleb128 0xe
	.byte	0x6
	.byte	0xbf
	.byte	0xb
	.long	0x166f
	.uleb128 0xe
	.byte	0x6
	.byte	0xc1
	.byte	0xb
	.long	0x1691
	.uleb128 0xe
	.byte	0x6
	.byte	0xc3
	.byte	0xb
	.long	0x16ad
	.uleb128 0xe
	.byte	0x6
	.byte	0xc4
	.byte	0xb
	.long	0x16cd
	.uleb128 0xe
	.byte	0x6
	.byte	0xc5
	.byte	0xb
	.long	0x16ee
	.uleb128 0xe
	.byte	0x6
	.byte	0xc6
	.byte	0xb
	.long	0x170f
	.uleb128 0xe
	.byte	0x6
	.byte	0xc7
	.byte	0xb
	.long	0x172f
	.uleb128 0xe
	.byte	0x6
	.byte	0xc8
	.byte	0xb
	.long	0x1746
	.uleb128 0xe
	.byte	0x6
	.byte	0xc9
	.byte	0xb
	.long	0x1767
	.uleb128 0xe
	.byte	0x6
	.byte	0xca
	.byte	0xb
	.long	0x1788
	.uleb128 0xe
	.byte	0x6
	.byte	0xcb
	.byte	0xb
	.long	0x17a9
	.uleb128 0xe
	.byte	0x6
	.byte	0xcc
	.byte	0xb
	.long	0x17ca
	.uleb128 0xe
	.byte	0x6
	.byte	0xcd
	.byte	0xb
	.long	0x17e2
	.uleb128 0xe
	.byte	0x6
	.byte	0xce
	.byte	0xb
	.long	0x17fe
	.uleb128 0xe
	.byte	0x6
	.byte	0xce
	.byte	0xb
	.long	0x181d
	.uleb128 0xe
	.byte	0x6
	.byte	0xcf
	.byte	0xb
	.long	0x183c
	.uleb128 0xe
	.byte	0x6
	.byte	0xcf
	.byte	0xb
	.long	0x185b
	.uleb128 0xe
	.byte	0x6
	.byte	0xd0
	.byte	0xb
	.long	0x187a
	.uleb128 0xe
	.byte	0x6
	.byte	0xd0
	.byte	0xb
	.long	0x1899
	.uleb128 0xe
	.byte	0x6
	.byte	0xd1
	.byte	0xb
	.long	0x18b8
	.uleb128 0xe
	.byte	0x6
	.byte	0xd1
	.byte	0xb
	.long	0x18d7
	.uleb128 0xe
	.byte	0x6
	.byte	0xd2
	.byte	0xb
	.long	0x18f6
	.uleb128 0xe
	.byte	0x6
	.byte	0xd2
	.byte	0xb
	.long	0x191a
	.uleb128 0xd
	.byte	0x6
	.value	0x10b
	.byte	0x16
	.long	0x193e
	.uleb128 0xd
	.byte	0x6
	.value	0x10c
	.byte	0x16
	.long	0x195a
	.uleb128 0xd
	.byte	0x6
	.value	0x10d
	.byte	0x16
	.long	0x197b
	.uleb128 0xd
	.byte	0x6
	.value	0x11b
	.byte	0xe
	.long	0x1691
	.uleb128 0xd
	.byte	0x6
	.value	0x11e
	.byte	0xe
	.long	0x1391
	.uleb128 0xd
	.byte	0x6
	.value	0x121
	.byte	0xe
	.long	0x13dc
	.uleb128 0xd
	.byte	0x6
	.value	0x124
	.byte	0xe
	.long	0x141d
	.uleb128 0xd
	.byte	0x6
	.value	0x128
	.byte	0xe
	.long	0x193e
	.uleb128 0xd
	.byte	0x6
	.value	0x129
	.byte	0xe
	.long	0x195a
	.uleb128 0xd
	.byte	0x6
	.value	0x12a
	.byte	0xe
	.long	0x197b
	.uleb128 0xf
	.long	.LASF104
	.byte	0x7
	.byte	0x35
	.byte	0xd
	.long	0x612
	.uleb128 0x10
	.long	.LASF37
	.byte	0x8
	.byte	0x7
	.byte	0x50
	.byte	0xb
	.long	0x604
	.uleb128 0x9
	.long	.LASF32
	.byte	0x7
	.byte	0x52
	.byte	0xd
	.long	0x172
	.byte	0
	.uleb128 0x11
	.long	.LASF37
	.byte	0x7
	.byte	0x54
	.byte	0x10
	.long	.LASF39
	.long	0x469
	.long	0x474
	.uleb128 0x12
	.long	0x19a1
	.uleb128 0x13
	.long	0x172
	.byte	0
	.uleb128 0x14
	.long	.LASF33
	.byte	0x7
	.byte	0x56
	.byte	0xc
	.long	.LASF35
	.long	0x488
	.long	0x48e
	.uleb128 0x12
	.long	0x19a1
	.byte	0
	.uleb128 0x14
	.long	.LASF34
	.byte	0x7
	.byte	0x57
	.byte	0xc
	.long	.LASF36
	.long	0x4a2
	.long	0x4a8
	.uleb128 0x12
	.long	0x19a1
	.byte	0
	.uleb128 0x15
	.long	.LASF38
	.byte	0x7
	.byte	0x59
	.byte	0xd
	.long	.LASF40
	.long	0x172
	.long	0x4c0
	.long	0x4c6
	.uleb128 0x12
	.long	0x19a7
	.byte	0
	.uleb128 0x16
	.long	.LASF37
	.byte	0x7
	.byte	0x61
	.byte	0x7
	.long	.LASF41
	.byte	0x1
	.long	0x4db
	.long	0x4e1
	.uleb128 0x12
	.long	0x19a1
	.byte	0
	.uleb128 0x16
	.long	.LASF37
	.byte	0x7
	.byte	0x63
	.byte	0x7
	.long	.LASF42
	.byte	0x1
	.long	0x4f6
	.long	0x501
	.uleb128 0x12
	.long	0x19a1
	.uleb128 0x13
	.long	0x19ad
	.byte	0
	.uleb128 0x16
	.long	.LASF37
	.byte	0x7
	.byte	0x66
	.byte	0x7
	.long	.LASF43
	.byte	0x1
	.long	0x516
	.long	0x521
	.uleb128 0x12
	.long	0x19a1
	.uleb128 0x13
	.long	0x630
	.byte	0
	.uleb128 0x16
	.long	.LASF37
	.byte	0x7
	.byte	0x6a
	.byte	0x7
	.long	.LASF44
	.byte	0x1
	.long	0x536
	.long	0x541
	.uleb128 0x12
	.long	0x19a1
	.uleb128 0x13
	.long	0x19b3
	.byte	0
	.uleb128 0x17
	.long	.LASF45
	.byte	0x7
	.byte	0x77
	.byte	0x7
	.long	.LASF46
	.long	0x19b9
	.byte	0x1
	.long	0x55a
	.long	0x565
	.uleb128 0x12
	.long	0x19a1
	.uleb128 0x13
	.long	0x19ad
	.byte	0
	.uleb128 0x17
	.long	.LASF45
	.byte	0x7
	.byte	0x7b
	.byte	0x7
	.long	.LASF47
	.long	0x19b9
	.byte	0x1
	.long	0x57e
	.long	0x589
	.uleb128 0x12
	.long	0x19a1
	.uleb128 0x13
	.long	0x19b3
	.byte	0
	.uleb128 0x16
	.long	.LASF48
	.byte	0x7
	.byte	0x82
	.byte	0x7
	.long	.LASF49
	.byte	0x1
	.long	0x59e
	.long	0x5a9
	.uleb128 0x12
	.long	0x19a1
	.uleb128 0x12
	.long	0x98
	.byte	0
	.uleb128 0x16
	.long	.LASF50
	.byte	0x7
	.byte	0x85
	.byte	0x7
	.long	.LASF51
	.byte	0x1
	.long	0x5be
	.long	0x5c9
	.uleb128 0x12
	.long	0x19a1
	.uleb128 0x13
	.long	0x19b9
	.byte	0
	.uleb128 0x18
	.long	.LASF95
	.byte	0x7
	.byte	0x91
	.byte	0x10
	.long	.LASF376
	.long	0x19bf
	.byte	0x1
	.long	0x5e2
	.long	0x5e8
	.uleb128 0x12
	.long	0x19a7
	.byte	0
	.uleb128 0x19
	.long	.LASF52
	.byte	0x7
	.byte	0x9a
	.byte	0x7
	.long	.LASF53
	.long	0x19c6
	.byte	0x1
	.long	0x5fd
	.uleb128 0x12
	.long	0x19a7
	.byte	0
	.byte	0
	.uleb128 0x4
	.long	0x43b
	.uleb128 0xe
	.byte	0x7
	.byte	0x4a
	.byte	0x10
	.long	0x61a
	.byte	0
	.uleb128 0xe
	.byte	0x7
	.byte	0x3a
	.byte	0x1a
	.long	0x43b
	.uleb128 0x1a
	.long	.LASF54
	.byte	0x7
	.byte	0x46
	.byte	0x8
	.long	.LASF55
	.long	0x630
	.uleb128 0x13
	.long	0x43b
	.byte	0
	.uleb128 0x1b
	.long	.LASF56
	.byte	0x8
	.value	0x10c
	.byte	0x1d
	.long	0x199c
	.uleb128 0x1c
	.long	.LASF394
	.uleb128 0x4
	.long	0x63d
	.uleb128 0x1b
	.long	.LASF57
	.byte	0x8
	.value	0x108
	.byte	0x1a
	.long	0x42
	.uleb128 0x1d
	.long	.LASF58
	.byte	0x9
	.value	0xa68
	.byte	0xd
	.uleb128 0x1d
	.long	.LASF59
	.byte	0x9
	.value	0xabc
	.byte	0xd
	.uleb128 0x8
	.long	.LASF61
	.byte	0x1
	.byte	0xa
	.byte	0x50
	.byte	0xa
	.long	0x68b
	.uleb128 0x1e
	.long	.LASF61
	.byte	0xa
	.byte	0x50
	.byte	0x2b
	.long	.LASF62
	.byte	0x1
	.long	0x684
	.uleb128 0x12
	.long	0x19e8
	.byte	0
	.byte	0
	.uleb128 0x4
	.long	0x666
	.uleb128 0x1f
	.long	.LASF102
	.byte	0xa
	.byte	0x53
	.byte	0x35
	.long	0x68b
	.byte	0x1
	.byte	0
	.uleb128 0x20
	.long	.LASF63
	.byte	0xb
	.byte	0x32
	.byte	0xd
	.uleb128 0x21
	.long	.LASF64
	.byte	0x1
	.byte	0xc
	.value	0x13c
	.byte	0xc
	.long	0x892
	.uleb128 0x22
	.long	.LASF78
	.byte	0xc
	.value	0x148
	.byte	0x7
	.long	.LASF395
	.long	0x6d0
	.uleb128 0x13
	.long	0x1a08
	.uleb128 0x13
	.long	0x1a0e
	.byte	0
	.uleb128 0x1b
	.long	.LASF65
	.byte	0xc
	.value	0x13e
	.byte	0x21
	.long	0x17a
	.uleb128 0x4
	.long	0x6d0
	.uleb128 0x23
	.string	"eq"
	.byte	0xc
	.value	0x14c
	.byte	0x7
	.long	.LASF66
	.long	0x19bf
	.long	0x701
	.uleb128 0x13
	.long	0x1a0e
	.uleb128 0x13
	.long	0x1a0e
	.byte	0
	.uleb128 0x23
	.string	"lt"
	.byte	0xc
	.value	0x150
	.byte	0x7
	.long	.LASF67
	.long	0x19bf
	.long	0x720
	.uleb128 0x13
	.long	0x1a0e
	.uleb128 0x13
	.long	0x1a0e
	.byte	0
	.uleb128 0x24
	.long	.LASF68
	.byte	0xc
	.value	0x158
	.byte	0x7
	.long	.LASF70
	.long	0x98
	.long	0x745
	.uleb128 0x13
	.long	0x1a14
	.uleb128 0x13
	.long	0x1a14
	.uleb128 0x13
	.long	0x647
	.byte	0
	.uleb128 0x24
	.long	.LASF69
	.byte	0xc
	.value	0x166
	.byte	0x7
	.long	.LASF71
	.long	0x647
	.long	0x760
	.uleb128 0x13
	.long	0x1a14
	.byte	0
	.uleb128 0x24
	.long	.LASF72
	.byte	0xc
	.value	0x170
	.byte	0x7
	.long	.LASF73
	.long	0x1a14
	.long	0x785
	.uleb128 0x13
	.long	0x1a14
	.uleb128 0x13
	.long	0x647
	.uleb128 0x13
	.long	0x1a0e
	.byte	0
	.uleb128 0x24
	.long	.LASF74
	.byte	0xc
	.value	0x17e
	.byte	0x7
	.long	.LASF75
	.long	0x1a1a
	.long	0x7aa
	.uleb128 0x13
	.long	0x1a1a
	.uleb128 0x13
	.long	0x1a14
	.uleb128 0x13
	.long	0x647
	.byte	0
	.uleb128 0x24
	.long	.LASF76
	.byte	0xc
	.value	0x18a
	.byte	0x7
	.long	.LASF77
	.long	0x1a1a
	.long	0x7cf
	.uleb128 0x13
	.long	0x1a1a
	.uleb128 0x13
	.long	0x1a14
	.uleb128 0x13
	.long	0x647
	.byte	0
	.uleb128 0x24
	.long	.LASF78
	.byte	0xc
	.value	0x196
	.byte	0x7
	.long	.LASF79
	.long	0x1a1a
	.long	0x7f4
	.uleb128 0x13
	.long	0x1a1a
	.uleb128 0x13
	.long	0x647
	.uleb128 0x13
	.long	0x6d0
	.byte	0
	.uleb128 0x24
	.long	.LASF80
	.byte	0xc
	.value	0x1a2
	.byte	0x7
	.long	.LASF81
	.long	0x6d0
	.long	0x80f
	.uleb128 0x13
	.long	0x1a20
	.byte	0
	.uleb128 0x1b
	.long	.LASF82
	.byte	0xc
	.value	0x13f
	.byte	0x21
	.long	0x98
	.uleb128 0x4
	.long	0x80f
	.uleb128 0x24
	.long	.LASF83
	.byte	0xc
	.value	0x1a8
	.byte	0x7
	.long	.LASF84
	.long	0x80f
	.long	0x83c
	.uleb128 0x13
	.long	0x1a0e
	.byte	0
	.uleb128 0x24
	.long	.LASF85
	.byte	0xc
	.value	0x1ac
	.byte	0x7
	.long	.LASF86
	.long	0x19bf
	.long	0x85c
	.uleb128 0x13
	.long	0x1a20
	.uleb128 0x13
	.long	0x1a20
	.byte	0
	.uleb128 0x25
	.string	"eof"
	.byte	0xc
	.value	0x1b0
	.byte	0x7
	.long	.LASF396
	.long	0x80f
	.uleb128 0x24
	.long	.LASF87
	.byte	0xc
	.value	0x1b4
	.byte	0x7
	.long	.LASF88
	.long	0x80f
	.long	0x888
	.uleb128 0x13
	.long	0x1a20
	.byte	0
	.uleb128 0x26
	.long	.LASF100
	.long	0x17a
	.byte	0
	.uleb128 0xe
	.byte	0xd
	.byte	0x2f
	.byte	0xb
	.long	0xe62
	.uleb128 0xe
	.byte	0xd
	.byte	0x30
	.byte	0xb
	.long	0xe6e
	.uleb128 0xe
	.byte	0xd
	.byte	0x31
	.byte	0xb
	.long	0xe7a
	.uleb128 0xe
	.byte	0xd
	.byte	0x32
	.byte	0xb
	.long	0xe86
	.uleb128 0xe
	.byte	0xd
	.byte	0x34
	.byte	0xb
	.long	0x1ab6
	.uleb128 0xe
	.byte	0xd
	.byte	0x35
	.byte	0xb
	.long	0x1ac2
	.uleb128 0xe
	.byte	0xd
	.byte	0x36
	.byte	0xb
	.long	0x1ace
	.uleb128 0xe
	.byte	0xd
	.byte	0x37
	.byte	0xb
	.long	0x1ada
	.uleb128 0xe
	.byte	0xd
	.byte	0x39
	.byte	0xb
	.long	0x1a56
	.uleb128 0xe
	.byte	0xd
	.byte	0x3a
	.byte	0xb
	.long	0x1a62
	.uleb128 0xe
	.byte	0xd
	.byte	0x3b
	.byte	0xb
	.long	0x1a6e
	.uleb128 0xe
	.byte	0xd
	.byte	0x3c
	.byte	0xb
	.long	0x1a7a
	.uleb128 0xe
	.byte	0xd
	.byte	0x3e
	.byte	0xb
	.long	0x1b2e
	.uleb128 0xe
	.byte	0xd
	.byte	0x3f
	.byte	0xb
	.long	0x1b16
	.uleb128 0xe
	.byte	0xd
	.byte	0x41
	.byte	0xb
	.long	0x1a26
	.uleb128 0xe
	.byte	0xd
	.byte	0x42
	.byte	0xb
	.long	0x1a32
	.uleb128 0xe
	.byte	0xd
	.byte	0x43
	.byte	0xb
	.long	0x1a3e
	.uleb128 0xe
	.byte	0xd
	.byte	0x44
	.byte	0xb
	.long	0x1a4a
	.uleb128 0xe
	.byte	0xd
	.byte	0x46
	.byte	0xb
	.long	0x1ae6
	.uleb128 0xe
	.byte	0xd
	.byte	0x47
	.byte	0xb
	.long	0x1af2
	.uleb128 0xe
	.byte	0xd
	.byte	0x48
	.byte	0xb
	.long	0x1afe
	.uleb128 0xe
	.byte	0xd
	.byte	0x49
	.byte	0xb
	.long	0x1b0a
	.uleb128 0xe
	.byte	0xd
	.byte	0x4b
	.byte	0xb
	.long	0x1a86
	.uleb128 0xe
	.byte	0xd
	.byte	0x4c
	.byte	0xb
	.long	0x1a92
	.uleb128 0xe
	.byte	0xd
	.byte	0x4d
	.byte	0xb
	.long	0x1a9e
	.uleb128 0xe
	.byte	0xd
	.byte	0x4e
	.byte	0xb
	.long	0x1aaa
	.uleb128 0xe
	.byte	0xd
	.byte	0x50
	.byte	0xb
	.long	0x1b3a
	.uleb128 0xe
	.byte	0xd
	.byte	0x51
	.byte	0xb
	.long	0x1b22
	.uleb128 0xe
	.byte	0xe
	.byte	0x35
	.byte	0xb
	.long	0x1b46
	.uleb128 0xe
	.byte	0xe
	.byte	0x36
	.byte	0xb
	.long	0x1c8c
	.uleb128 0xe
	.byte	0xe
	.byte	0x37
	.byte	0xb
	.long	0x1ca7
	.uleb128 0xe
	.byte	0xf
	.byte	0x7f
	.byte	0xb
	.long	0xde8
	.uleb128 0xe
	.byte	0xf
	.byte	0x80
	.byte	0xb
	.long	0xe1c
	.uleb128 0xe
	.byte	0xf
	.byte	0x86
	.byte	0xb
	.long	0x1cc5
	.uleb128 0xe
	.byte	0xf
	.byte	0x89
	.byte	0xb
	.long	0x1ce3
	.uleb128 0xe
	.byte	0xf
	.byte	0x8c
	.byte	0xb
	.long	0x1cfe
	.uleb128 0xe
	.byte	0xf
	.byte	0x8d
	.byte	0xb
	.long	0x1d14
	.uleb128 0xe
	.byte	0xf
	.byte	0x8e
	.byte	0xb
	.long	0x1d2a
	.uleb128 0xe
	.byte	0xf
	.byte	0x8f
	.byte	0xb
	.long	0x1d40
	.uleb128 0xe
	.byte	0xf
	.byte	0x91
	.byte	0xb
	.long	0x1d6b
	.uleb128 0xe
	.byte	0xf
	.byte	0x94
	.byte	0xb
	.long	0x1d87
	.uleb128 0xe
	.byte	0xf
	.byte	0x96
	.byte	0xb
	.long	0x1d9e
	.uleb128 0xe
	.byte	0xf
	.byte	0x99
	.byte	0xb
	.long	0x1dba
	.uleb128 0xe
	.byte	0xf
	.byte	0x9a
	.byte	0xb
	.long	0x1dd6
	.uleb128 0xe
	.byte	0xf
	.byte	0x9b
	.byte	0xb
	.long	0x1df7
	.uleb128 0xe
	.byte	0xf
	.byte	0x9d
	.byte	0xb
	.long	0x1e18
	.uleb128 0xe
	.byte	0xf
	.byte	0xa0
	.byte	0xb
	.long	0x1e3a
	.uleb128 0xe
	.byte	0xf
	.byte	0xa3
	.byte	0xb
	.long	0x1e4d
	.uleb128 0xe
	.byte	0xf
	.byte	0xa5
	.byte	0xb
	.long	0x1e5a
	.uleb128 0xe
	.byte	0xf
	.byte	0xa6
	.byte	0xb
	.long	0x1e6d
	.uleb128 0xe
	.byte	0xf
	.byte	0xa7
	.byte	0xb
	.long	0x1e8e
	.uleb128 0xe
	.byte	0xf
	.byte	0xa8
	.byte	0xb
	.long	0x1eae
	.uleb128 0xe
	.byte	0xf
	.byte	0xa9
	.byte	0xb
	.long	0x1ece
	.uleb128 0xe
	.byte	0xf
	.byte	0xab
	.byte	0xb
	.long	0x1ee5
	.uleb128 0xe
	.byte	0xf
	.byte	0xac
	.byte	0xb
	.long	0x1f06
	.uleb128 0xe
	.byte	0xf
	.byte	0xf0
	.byte	0x16
	.long	0xe50
	.uleb128 0xe
	.byte	0xf
	.byte	0xf5
	.byte	0x16
	.long	0xd4f
	.uleb128 0xe
	.byte	0xf
	.byte	0xf6
	.byte	0x16
	.long	0x1f22
	.uleb128 0xe
	.byte	0xf
	.byte	0xf8
	.byte	0x16
	.long	0x1f3e
	.uleb128 0xe
	.byte	0xf
	.byte	0xf9
	.byte	0x16
	.long	0x1f94
	.uleb128 0xe
	.byte	0xf
	.byte	0xfa
	.byte	0x16
	.long	0x1f54
	.uleb128 0xe
	.byte	0xf
	.byte	0xfb
	.byte	0x16
	.long	0x1f74
	.uleb128 0xe
	.byte	0xf
	.byte	0xfc
	.byte	0x16
	.long	0x1faf
	.uleb128 0xe
	.byte	0x10
	.byte	0x62
	.byte	0xb
	.long	0x1113
	.uleb128 0xe
	.byte	0x10
	.byte	0x63
	.byte	0xb
	.long	0x2053
	.uleb128 0xe
	.byte	0x10
	.byte	0x65
	.byte	0xb
	.long	0x206a
	.uleb128 0xe
	.byte	0x10
	.byte	0x66
	.byte	0xb
	.long	0x207d
	.uleb128 0xe
	.byte	0x10
	.byte	0x67
	.byte	0xb
	.long	0x2093
	.uleb128 0xe
	.byte	0x10
	.byte	0x68
	.byte	0xb
	.long	0x20aa
	.uleb128 0xe
	.byte	0x10
	.byte	0x69
	.byte	0xb
	.long	0x20c1
	.uleb128 0xe
	.byte	0x10
	.byte	0x6a
	.byte	0xb
	.long	0x20d7
	.uleb128 0xe
	.byte	0x10
	.byte	0x6b
	.byte	0xb
	.long	0x20ee
	.uleb128 0xe
	.byte	0x10
	.byte	0x6c
	.byte	0xb
	.long	0x2110
	.uleb128 0xe
	.byte	0x10
	.byte	0x6d
	.byte	0xb
	.long	0x2131
	.uleb128 0xe
	.byte	0x10
	.byte	0x71
	.byte	0xb
	.long	0x214c
	.uleb128 0xe
	.byte	0x10
	.byte	0x72
	.byte	0xb
	.long	0x2172
	.uleb128 0xe
	.byte	0x10
	.byte	0x74
	.byte	0xb
	.long	0x2192
	.uleb128 0xe
	.byte	0x10
	.byte	0x75
	.byte	0xb
	.long	0x21b3
	.uleb128 0xe
	.byte	0x10
	.byte	0x76
	.byte	0xb
	.long	0x21d5
	.uleb128 0xe
	.byte	0x10
	.byte	0x78
	.byte	0xb
	.long	0x21ec
	.uleb128 0xe
	.byte	0x10
	.byte	0x79
	.byte	0xb
	.long	0x2203
	.uleb128 0xe
	.byte	0x10
	.byte	0x7e
	.byte	0xb
	.long	0x2210
	.uleb128 0xe
	.byte	0x10
	.byte	0x83
	.byte	0xb
	.long	0x2223
	.uleb128 0xe
	.byte	0x10
	.byte	0x84
	.byte	0xb
	.long	0x2239
	.uleb128 0xe
	.byte	0x10
	.byte	0x85
	.byte	0xb
	.long	0x2254
	.uleb128 0xe
	.byte	0x10
	.byte	0x87
	.byte	0xb
	.long	0x2267
	.uleb128 0xe
	.byte	0x10
	.byte	0x88
	.byte	0xb
	.long	0x227f
	.uleb128 0xe
	.byte	0x10
	.byte	0x8b
	.byte	0xb
	.long	0x22a5
	.uleb128 0xe
	.byte	0x10
	.byte	0x8d
	.byte	0xb
	.long	0x22b1
	.uleb128 0xe
	.byte	0x10
	.byte	0x8f
	.byte	0xb
	.long	0x22c7
	.uleb128 0x27
	.long	.LASF397
	.byte	0x11
	.value	0x1ae9
	.byte	0x14
	.long	0xb82
	.uleb128 0xb
	.long	.LASF90
	.byte	0x11
	.value	0x1aeb
	.byte	0x14
	.uleb128 0xc
	.byte	0x11
	.value	0x1aeb
	.byte	0x14
	.long	0xb6f
	.byte	0
	.uleb128 0xc
	.byte	0x11
	.value	0x1ae9
	.byte	0x14
	.long	0xb62
	.uleb128 0x28
	.string	"_V2"
	.byte	0x12
	.byte	0x4e
	.byte	0x14
	.uleb128 0x29
	.byte	0x12
	.byte	0x4e
	.byte	0x14
	.long	0xb8b
	.uleb128 0x2a
	.long	.LASF98
	.long	0xc59
	.uleb128 0x2b
	.long	.LASF91
	.byte	0x1
	.byte	0x13
	.value	0x272
	.byte	0xb
	.byte	0x1
	.long	0xc53
	.uleb128 0x2c
	.long	.LASF91
	.byte	0x13
	.value	0x276
	.byte	0x7
	.long	.LASF93
	.byte	0x1
	.long	0xbc9
	.long	0xbcf
	.uleb128 0x12
	.long	0x22e3
	.byte	0
	.uleb128 0x2c
	.long	.LASF92
	.byte	0x13
	.value	0x277
	.byte	0x7
	.long	.LASF94
	.byte	0x1
	.long	0xbe5
	.long	0xbf0
	.uleb128 0x12
	.long	0x22e3
	.uleb128 0x12
	.long	0x98
	.byte	0
	.uleb128 0x2d
	.long	.LASF91
	.byte	0x13
	.value	0x27a
	.byte	0x7
	.long	.LASF398
	.byte	0x1
	.byte	0x1
	.long	0xc07
	.long	0xc12
	.uleb128 0x12
	.long	0x22e3
	.uleb128 0x13
	.long	0x22e9
	.byte	0
	.uleb128 0x2e
	.long	.LASF45
	.byte	0x13
	.value	0x27b
	.byte	0xd
	.long	.LASF399
	.long	0x22ef
	.byte	0x1
	.byte	0x1
	.long	0xc2d
	.long	0xc38
	.uleb128 0x12
	.long	0x22e3
	.uleb128 0x13
	.long	0x22e9
	.byte	0
	.uleb128 0x2f
	.long	.LASF96
	.byte	0x13
	.value	0x27f
	.byte	0x1b
	.long	0x1cb9
	.uleb128 0x2f
	.long	.LASF97
	.byte	0x13
	.value	0x280
	.byte	0x14
	.long	0x19bf
	.byte	0
	.uleb128 0x4
	.long	0xba4
	.byte	0
	.uleb128 0xe
	.byte	0x14
	.byte	0x52
	.byte	0xb
	.long	0x2301
	.uleb128 0xe
	.byte	0x14
	.byte	0x53
	.byte	0xb
	.long	0x22f5
	.uleb128 0xe
	.byte	0x14
	.byte	0x54
	.byte	0xb
	.long	0xf0d
	.uleb128 0xe
	.byte	0x14
	.byte	0x5c
	.byte	0xb
	.long	0x2313
	.uleb128 0xe
	.byte	0x14
	.byte	0x65
	.byte	0xb
	.long	0x232e
	.uleb128 0xe
	.byte	0x14
	.byte	0x68
	.byte	0xb
	.long	0x2349
	.uleb128 0xe
	.byte	0x14
	.byte	0x69
	.byte	0xb
	.long	0x235f
	.uleb128 0x2a
	.long	.LASF99
	.long	0xcad
	.uleb128 0x26
	.long	.LASF100
	.long	0x17a
	.uleb128 0x30
	.long	.LASF400
	.long	0x6a6
	.byte	0
	.uleb128 0x3
	.long	.LASF101
	.byte	0x15
	.byte	0x8d
	.byte	0x21
	.long	0xc91
	.uleb128 0x31
	.long	.LASF103
	.byte	0x2
	.byte	0x3d
	.byte	0x12
	.long	.LASF401
	.long	0xcad
	.uleb128 0x32
	.long	.LASF379
	.byte	0x2
	.byte	0x4a
	.byte	0x19
	.long	0xba4
	.byte	0
	.uleb128 0x33
	.long	.LASF105
	.byte	0x8
	.value	0x120
	.byte	0xb
	.long	0xd6b
	.uleb128 0xb
	.long	.LASF89
	.byte	0x8
	.value	0x122
	.byte	0x41
	.uleb128 0xc
	.byte	0x8
	.value	0x122
	.byte	0x41
	.long	0xce3
	.uleb128 0xe
	.byte	0x6
	.byte	0xfb
	.byte	0xb
	.long	0x193e
	.uleb128 0xd
	.byte	0x6
	.value	0x104
	.byte	0xb
	.long	0x195a
	.uleb128 0xd
	.byte	0x6
	.value	0x105
	.byte	0xb
	.long	0x197b
	.uleb128 0x20
	.long	.LASF106
	.byte	0x16
	.byte	0x23
	.byte	0xb
	.uleb128 0xe
	.byte	0xf
	.byte	0xc8
	.byte	0xb
	.long	0xe50
	.uleb128 0xe
	.byte	0xf
	.byte	0xd8
	.byte	0xb
	.long	0x1f22
	.uleb128 0xe
	.byte	0xf
	.byte	0xe3
	.byte	0xb
	.long	0x1f3e
	.uleb128 0xe
	.byte	0xf
	.byte	0xe4
	.byte	0xb
	.long	0x1f54
	.uleb128 0xe
	.byte	0xf
	.byte	0xe5
	.byte	0xb
	.long	0x1f74
	.uleb128 0xe
	.byte	0xf
	.byte	0xe7
	.byte	0xb
	.long	0x1f94
	.uleb128 0xe
	.byte	0xf
	.byte	0xe8
	.byte	0xb
	.long	0x1faf
	.uleb128 0x34
	.string	"div"
	.byte	0xf
	.byte	0xd5
	.byte	0x3
	.long	.LASF402
	.long	0xe50
	.uleb128 0x13
	.long	0xd72
	.uleb128 0x13
	.long	0xd72
	.byte	0
	.byte	0
	.uleb128 0x2
	.byte	0x8
	.byte	0x7
	.long	.LASF107
	.uleb128 0x2
	.byte	0x8
	.byte	0x5
	.long	.LASF108
	.uleb128 0x2
	.byte	0x10
	.byte	0x4
	.long	.LASF109
	.uleb128 0x2
	.byte	0x8
	.byte	0x4
	.long	.LASF110
	.uleb128 0x2
	.byte	0x4
	.byte	0x4
	.long	.LASF111
	.uleb128 0x2
	.byte	0x20
	.byte	0x3
	.long	.LASF112
	.uleb128 0x2
	.byte	0x10
	.byte	0x4
	.long	.LASF113
	.uleb128 0x3
	.long	.LASF114
	.byte	0x17
	.byte	0x95
	.byte	0xf
	.long	0xd87
	.uleb128 0x3
	.long	.LASF115
	.byte	0x17
	.byte	0x96
	.byte	0x10
	.long	0xd80
	.uleb128 0x3
	.long	.LASF57
	.byte	0x18
	.byte	0xd1
	.byte	0x17
	.long	0x42
	.uleb128 0x35
	.byte	0x8
	.byte	0x19
	.byte	0x3b
	.byte	0x3
	.long	.LASF118
	.long	0xde8
	.uleb128 0x9
	.long	.LASF116
	.byte	0x19
	.byte	0x3c
	.byte	0x9
	.long	0x98
	.byte	0
	.uleb128 0x36
	.string	"rem"
	.byte	0x19
	.byte	0x3d
	.byte	0x9
	.long	0x98
	.byte	0x4
	.byte	0
	.uleb128 0x3
	.long	.LASF117
	.byte	0x19
	.byte	0x3e
	.byte	0x5
	.long	0xdc0
	.uleb128 0x35
	.byte	0x10
	.byte	0x19
	.byte	0x43
	.byte	0x3
	.long	.LASF119
	.long	0xe1c
	.uleb128 0x9
	.long	.LASF116
	.byte	0x19
	.byte	0x44
	.byte	0xe
	.long	0xb7
	.byte	0
	.uleb128 0x36
	.string	"rem"
	.byte	0x19
	.byte	0x45
	.byte	0xe
	.long	0xb7
	.byte	0x8
	.byte	0
	.uleb128 0x3
	.long	.LASF120
	.byte	0x19
	.byte	0x46
	.byte	0x5
	.long	0xdf4
	.uleb128 0x35
	.byte	0x10
	.byte	0x19
	.byte	0x4d
	.byte	0x3
	.long	.LASF121
	.long	0xe50
	.uleb128 0x9
	.long	.LASF116
	.byte	0x19
	.byte	0x4e
	.byte	0x13
	.long	0xd72
	.byte	0
	.uleb128 0x36
	.string	"rem"
	.byte	0x19
	.byte	0x4f
	.byte	0x13
	.long	0xd72
	.byte	0x8
	.byte	0
	.uleb128 0x3
	.long	.LASF122
	.byte	0x19
	.byte	0x50
	.byte	0x5
	.long	0xe28
	.uleb128 0x7
	.byte	0x8
	.long	0x181
	.uleb128 0x3
	.long	.LASF123
	.byte	0x1a
	.byte	0x18
	.byte	0x12
	.long	0x49
	.uleb128 0x3
	.long	.LASF124
	.byte	0x1a
	.byte	0x19
	.byte	0x13
	.long	0x68
	.uleb128 0x3
	.long	.LASF125
	.byte	0x1a
	.byte	0x1a
	.byte	0x13
	.long	0x87
	.uleb128 0x3
	.long	.LASF126
	.byte	0x1a
	.byte	0x1b
	.byte	0x13
	.long	0xab
	.uleb128 0x37
	.long	0x17a
	.long	0xea2
	.uleb128 0x38
	.long	0x42
	.byte	0x3
	.byte	0
	.uleb128 0x1b
	.long	.LASF127
	.byte	0x19
	.value	0x328
	.byte	0xf
	.long	0xeaf
	.uleb128 0x7
	.byte	0x8
	.long	0xeb5
	.uleb128 0x39
	.long	0x98
	.long	0xec9
	.uleb128 0x13
	.long	0xec9
	.uleb128 0x13
	.long	0xec9
	.byte	0
	.uleb128 0x7
	.byte	0x8
	.long	0xecf
	.uleb128 0x3a
	.uleb128 0x3b
	.long	.LASF403
	.byte	0x18
	.byte	0x1b
	.byte	0
	.long	0xf0d
	.uleb128 0x3c
	.long	.LASF128
	.byte	0x1b
	.byte	0
	.long	0x3b
	.byte	0
	.uleb128 0x3c
	.long	.LASF129
	.byte	0x1b
	.byte	0
	.long	0x3b
	.byte	0x4
	.uleb128 0x3c
	.long	.LASF130
	.byte	0x1b
	.byte	0
	.long	0x172
	.byte	0x8
	.uleb128 0x3c
	.long	.LASF131
	.byte	0x1b
	.byte	0
	.long	0x172
	.byte	0x10
	.byte	0
	.uleb128 0x3
	.long	.LASF132
	.byte	0x1c
	.byte	0x14
	.byte	0x17
	.long	0x3b
	.uleb128 0x35
	.byte	0x8
	.byte	0x1d
	.byte	0xe
	.byte	0x1
	.long	.LASF133
	.long	0xf63
	.uleb128 0x3d
	.byte	0x4
	.byte	0x1d
	.byte	0x11
	.byte	0x3
	.long	0xf48
	.uleb128 0x3e
	.long	.LASF134
	.byte	0x1d
	.byte	0x12
	.byte	0x13
	.long	0x3b
	.uleb128 0x3e
	.long	.LASF135
	.byte	0x1d
	.byte	0x13
	.byte	0xa
	.long	0xe92
	.byte	0
	.uleb128 0x9
	.long	.LASF136
	.byte	0x1d
	.byte	0xf
	.byte	0x7
	.long	0x98
	.byte	0
	.uleb128 0x9
	.long	.LASF137
	.byte	0x1d
	.byte	0x14
	.byte	0x5
	.long	0xf26
	.byte	0x4
	.byte	0
	.uleb128 0x3
	.long	.LASF138
	.byte	0x1d
	.byte	0x15
	.byte	0x3
	.long	0xf19
	.uleb128 0x3
	.long	.LASF139
	.byte	0x1e
	.byte	0x6
	.byte	0x15
	.long	0xf63
	.uleb128 0x4
	.long	0xf6f
	.uleb128 0x3
	.long	.LASF140
	.byte	0x1f
	.byte	0x5
	.byte	0x19
	.long	0xf8c
	.uleb128 0x8
	.long	.LASF141
	.byte	0xd8
	.byte	0x20
	.byte	0x31
	.byte	0x8
	.long	0x1113
	.uleb128 0x9
	.long	.LASF142
	.byte	0x20
	.byte	0x33
	.byte	0x7
	.long	0x98
	.byte	0
	.uleb128 0x9
	.long	.LASF143
	.byte	0x20
	.byte	0x36
	.byte	0x9
	.long	0x174
	.byte	0x8
	.uleb128 0x9
	.long	.LASF144
	.byte	0x20
	.byte	0x37
	.byte	0x9
	.long	0x174
	.byte	0x10
	.uleb128 0x9
	.long	.LASF145
	.byte	0x20
	.byte	0x38
	.byte	0x9
	.long	0x174
	.byte	0x18
	.uleb128 0x9
	.long	.LASF146
	.byte	0x20
	.byte	0x39
	.byte	0x9
	.long	0x174
	.byte	0x20
	.uleb128 0x9
	.long	.LASF147
	.byte	0x20
	.byte	0x3a
	.byte	0x9
	.long	0x174
	.byte	0x28
	.uleb128 0x9
	.long	.LASF148
	.byte	0x20
	.byte	0x3b
	.byte	0x9
	.long	0x174
	.byte	0x30
	.uleb128 0x9
	.long	.LASF149
	.byte	0x20
	.byte	0x3c
	.byte	0x9
	.long	0x174
	.byte	0x38
	.uleb128 0x9
	.long	.LASF150
	.byte	0x20
	.byte	0x3d
	.byte	0x9
	.long	0x174
	.byte	0x40
	.uleb128 0x9
	.long	.LASF151
	.byte	0x20
	.byte	0x40
	.byte	0x9
	.long	0x174
	.byte	0x48
	.uleb128 0x9
	.long	.LASF152
	.byte	0x20
	.byte	0x41
	.byte	0x9
	.long	0x174
	.byte	0x50
	.uleb128 0x9
	.long	.LASF153
	.byte	0x20
	.byte	0x42
	.byte	0x9
	.long	0x174
	.byte	0x58
	.uleb128 0x9
	.long	.LASF154
	.byte	0x20
	.byte	0x44
	.byte	0x16
	.long	0x200b
	.byte	0x60
	.uleb128 0x9
	.long	.LASF155
	.byte	0x20
	.byte	0x46
	.byte	0x14
	.long	0x2011
	.byte	0x68
	.uleb128 0x9
	.long	.LASF156
	.byte	0x20
	.byte	0x48
	.byte	0x7
	.long	0x98
	.byte	0x70
	.uleb128 0x9
	.long	.LASF157
	.byte	0x20
	.byte	0x49
	.byte	0x7
	.long	0x98
	.byte	0x74
	.uleb128 0x9
	.long	.LASF158
	.byte	0x20
	.byte	0x4a
	.byte	0xb
	.long	0x142
	.byte	0x78
	.uleb128 0x9
	.long	.LASF159
	.byte	0x20
	.byte	0x4d
	.byte	0x12
	.long	0x34
	.byte	0x80
	.uleb128 0x9
	.long	.LASF160
	.byte	0x20
	.byte	0x4e
	.byte	0xf
	.long	0x55
	.byte	0x82
	.uleb128 0x9
	.long	.LASF161
	.byte	0x20
	.byte	0x4f
	.byte	0x8
	.long	0x2017
	.byte	0x83
	.uleb128 0x9
	.long	.LASF162
	.byte	0x20
	.byte	0x51
	.byte	0xf
	.long	0x2027
	.byte	0x88
	.uleb128 0x9
	.long	.LASF163
	.byte	0x20
	.byte	0x59
	.byte	0xd
	.long	0x14e
	.byte	0x90
	.uleb128 0x9
	.long	.LASF164
	.byte	0x20
	.byte	0x5b
	.byte	0x17
	.long	0x2032
	.byte	0x98
	.uleb128 0x9
	.long	.LASF165
	.byte	0x20
	.byte	0x5c
	.byte	0x19
	.long	0x203d
	.byte	0xa0
	.uleb128 0x9
	.long	.LASF166
	.byte	0x20
	.byte	0x5d
	.byte	0x14
	.long	0x2011
	.byte	0xa8
	.uleb128 0x9
	.long	.LASF167
	.byte	0x20
	.byte	0x5e
	.byte	0x9
	.long	0x172
	.byte	0xb0
	.uleb128 0x9
	.long	.LASF168
	.byte	0x20
	.byte	0x5f
	.byte	0xa
	.long	0xdb4
	.byte	0xb8
	.uleb128 0x9
	.long	.LASF169
	.byte	0x20
	.byte	0x60
	.byte	0x7
	.long	0x98
	.byte	0xc0
	.uleb128 0x9
	.long	.LASF170
	.byte	0x20
	.byte	0x62
	.byte	0x8
	.long	0x2043
	.byte	0xc4
	.byte	0
	.uleb128 0x3
	.long	.LASF171
	.byte	0x21
	.byte	0x7
	.byte	0x19
	.long	0xf8c
	.uleb128 0x3f
	.long	.LASF172
	.byte	0x22
	.value	0x11c
	.byte	0xf
	.long	0xf0d
	.long	0x1136
	.uleb128 0x13
	.long	0x98
	.byte	0
	.uleb128 0x3f
	.long	.LASF173
	.byte	0x22
	.value	0x2d6
	.byte	0xf
	.long	0xf0d
	.long	0x114d
	.uleb128 0x13
	.long	0x114d
	.byte	0
	.uleb128 0x7
	.byte	0x8
	.long	0xf80
	.uleb128 0x3f
	.long	.LASF174
	.byte	0x22
	.value	0x2f3
	.byte	0x11
	.long	0x1174
	.long	0x1174
	.uleb128 0x13
	.long	0x1174
	.uleb128 0x13
	.long	0x98
	.uleb128 0x13
	.long	0x114d
	.byte	0
	.uleb128 0x7
	.byte	0x8
	.long	0x117a
	.uleb128 0x2
	.byte	0x4
	.byte	0x5
	.long	.LASF175
	.uleb128 0x4
	.long	0x117a
	.uleb128 0x3f
	.long	.LASF176
	.byte	0x22
	.value	0x2e4
	.byte	0xf
	.long	0xf0d
	.long	0x11a2
	.uleb128 0x13
	.long	0x117a
	.uleb128 0x13
	.long	0x114d
	.byte	0
	.uleb128 0x3f
	.long	.LASF177
	.byte	0x22
	.value	0x2fa
	.byte	0xc
	.long	0x98
	.long	0x11be
	.uleb128 0x13
	.long	0x11be
	.uleb128 0x13
	.long	0x114d
	.byte	0
	.uleb128 0x7
	.byte	0x8
	.long	0x1181
	.uleb128 0x3f
	.long	.LASF178
	.byte	0x22
	.value	0x23d
	.byte	0xc
	.long	0x98
	.long	0x11e0
	.uleb128 0x13
	.long	0x114d
	.uleb128 0x13
	.long	0x98
	.byte	0
	.uleb128 0x3f
	.long	.LASF179
	.byte	0x22
	.value	0x244
	.byte	0xc
	.long	0x98
	.long	0x11fd
	.uleb128 0x13
	.long	0x114d
	.uleb128 0x13
	.long	0x11be
	.uleb128 0x40
	.byte	0
	.uleb128 0x24
	.long	.LASF180
	.byte	0x22
	.value	0x280
	.byte	0xc
	.long	.LASF181
	.long	0x98
	.long	0x121e
	.uleb128 0x13
	.long	0x114d
	.uleb128 0x13
	.long	0x11be
	.uleb128 0x40
	.byte	0
	.uleb128 0x3f
	.long	.LASF182
	.byte	0x22
	.value	0x2d7
	.byte	0xf
	.long	0xf0d
	.long	0x1235
	.uleb128 0x13
	.long	0x114d
	.byte	0
	.uleb128 0x41
	.long	.LASF304
	.byte	0x22
	.value	0x2dd
	.byte	0xf
	.long	0xf0d
	.uleb128 0x3f
	.long	.LASF183
	.byte	0x22
	.value	0x133
	.byte	0xf
	.long	0xdb4
	.long	0x1263
	.uleb128 0x13
	.long	0xe5c
	.uleb128 0x13
	.long	0xdb4
	.uleb128 0x13
	.long	0x1263
	.byte	0
	.uleb128 0x7
	.byte	0x8
	.long	0xf6f
	.uleb128 0x3f
	.long	.LASF184
	.byte	0x22
	.value	0x128
	.byte	0xf
	.long	0xdb4
	.long	0x128f
	.uleb128 0x13
	.long	0x1174
	.uleb128 0x13
	.long	0xe5c
	.uleb128 0x13
	.long	0xdb4
	.uleb128 0x13
	.long	0x1263
	.byte	0
	.uleb128 0x3f
	.long	.LASF185
	.byte	0x22
	.value	0x124
	.byte	0xc
	.long	0x98
	.long	0x12a6
	.uleb128 0x13
	.long	0x12a6
	.byte	0
	.uleb128 0x7
	.byte	0x8
	.long	0xf7b
	.uleb128 0x3f
	.long	.LASF186
	.byte	0x22
	.value	0x151
	.byte	0xf
	.long	0xdb4
	.long	0x12d2
	.uleb128 0x13
	.long	0x1174
	.uleb128 0x13
	.long	0x12d2
	.uleb128 0x13
	.long	0xdb4
	.uleb128 0x13
	.long	0x1263
	.byte	0
	.uleb128 0x7
	.byte	0x8
	.long	0xe5c
	.uleb128 0x3f
	.long	.LASF187
	.byte	0x22
	.value	0x2e5
	.byte	0xf
	.long	0xf0d
	.long	0x12f4
	.uleb128 0x13
	.long	0x117a
	.uleb128 0x13
	.long	0x114d
	.byte	0
	.uleb128 0x3f
	.long	.LASF188
	.byte	0x22
	.value	0x2eb
	.byte	0xf
	.long	0xf0d
	.long	0x130b
	.uleb128 0x13
	.long	0x117a
	.byte	0
	.uleb128 0x3f
	.long	.LASF189
	.byte	0x22
	.value	0x24e
	.byte	0xc
	.long	0x98
	.long	0x132d
	.uleb128 0x13
	.long	0x1174
	.uleb128 0x13
	.long	0xdb4
	.uleb128 0x13
	.long	0x11be
	.uleb128 0x40
	.byte	0
	.uleb128 0x24
	.long	.LASF190
	.byte	0x22
	.value	0x287
	.byte	0xc
	.long	.LASF191
	.long	0x98
	.long	0x134e
	.uleb128 0x13
	.long	0x11be
	.uleb128 0x13
	.long	0x11be
	.uleb128 0x40
	.byte	0
	.uleb128 0x3f
	.long	.LASF192
	.byte	0x22
	.value	0x302
	.byte	0xf
	.long	0xf0d
	.long	0x136a
	.uleb128 0x13
	.long	0xf0d
	.uleb128 0x13
	.long	0x114d
	.byte	0
	.uleb128 0x3f
	.long	.LASF193
	.byte	0x22
	.value	0x256
	.byte	0xc
	.long	0x98
	.long	0x138b
	.uleb128 0x13
	.long	0x114d
	.uleb128 0x13
	.long	0x11be
	.uleb128 0x13
	.long	0x138b
	.byte	0
	.uleb128 0x7
	.byte	0x8
	.long	0xed0
	.uleb128 0x24
	.long	.LASF194
	.byte	0x22
	.value	0x2b5
	.byte	0xc
	.long	.LASF195
	.long	0x98
	.long	0x13b6
	.uleb128 0x13
	.long	0x114d
	.uleb128 0x13
	.long	0x11be
	.uleb128 0x13
	.long	0x138b
	.byte	0
	.uleb128 0x3f
	.long	.LASF196
	.byte	0x22
	.value	0x263
	.byte	0xc
	.long	0x98
	.long	0x13dc
	.uleb128 0x13
	.long	0x1174
	.uleb128 0x13
	.long	0xdb4
	.uleb128 0x13
	.long	0x11be
	.uleb128 0x13
	.long	0x138b
	.byte	0
	.uleb128 0x24
	.long	.LASF197
	.byte	0x22
	.value	0x2bc
	.byte	0xc
	.long	.LASF198
	.long	0x98
	.long	0x1401
	.uleb128 0x13
	.long	0x11be
	.uleb128 0x13
	.long	0x11be
	.uleb128 0x13
	.long	0x138b
	.byte	0
	.uleb128 0x3f
	.long	.LASF199
	.byte	0x22
	.value	0x25e
	.byte	0xc
	.long	0x98
	.long	0x141d
	.uleb128 0x13
	.long	0x11be
	.uleb128 0x13
	.long	0x138b
	.byte	0
	.uleb128 0x24
	.long	.LASF200
	.byte	0x22
	.value	0x2b9
	.byte	0xc
	.long	.LASF201
	.long	0x98
	.long	0x143d
	.uleb128 0x13
	.long	0x11be
	.uleb128 0x13
	.long	0x138b
	.byte	0
	.uleb128 0x3f
	.long	.LASF202
	.byte	0x22
	.value	0x12d
	.byte	0xf
	.long	0xdb4
	.long	0x145e
	.uleb128 0x13
	.long	0x174
	.uleb128 0x13
	.long	0x117a
	.uleb128 0x13
	.long	0x1263
	.byte	0
	.uleb128 0x42
	.long	.LASF203
	.byte	0x22
	.byte	0x61
	.byte	0x11
	.long	0x1174
	.long	0x1479
	.uleb128 0x13
	.long	0x1174
	.uleb128 0x13
	.long	0x11be
	.byte	0
	.uleb128 0x42
	.long	.LASF204
	.byte	0x22
	.byte	0x6a
	.byte	0xc
	.long	0x98
	.long	0x1494
	.uleb128 0x13
	.long	0x11be
	.uleb128 0x13
	.long	0x11be
	.byte	0
	.uleb128 0x42
	.long	.LASF205
	.byte	0x22
	.byte	0x83
	.byte	0xc
	.long	0x98
	.long	0x14af
	.uleb128 0x13
	.long	0x11be
	.uleb128 0x13
	.long	0x11be
	.byte	0
	.uleb128 0x42
	.long	.LASF206
	.byte	0x22
	.byte	0x57
	.byte	0x11
	.long	0x1174
	.long	0x14ca
	.uleb128 0x13
	.long	0x1174
	.uleb128 0x13
	.long	0x11be
	.byte	0
	.uleb128 0x42
	.long	.LASF207
	.byte	0x22
	.byte	0xbb
	.byte	0xf
	.long	0xdb4
	.long	0x14e5
	.uleb128 0x13
	.long	0x11be
	.uleb128 0x13
	.long	0x11be
	.byte	0
	.uleb128 0x3f
	.long	.LASF208
	.byte	0x22
	.value	0x342
	.byte	0xf
	.long	0xdb4
	.long	0x150b
	.uleb128 0x13
	.long	0x1174
	.uleb128 0x13
	.long	0xdb4
	.uleb128 0x13
	.long	0x11be
	.uleb128 0x13
	.long	0x150b
	.byte	0
	.uleb128 0x7
	.byte	0x8
	.long	0x15ad
	.uleb128 0x43
	.string	"tm"
	.byte	0x38
	.byte	0x23
	.byte	0x7
	.byte	0x8
	.long	0x15ad
	.uleb128 0x9
	.long	.LASF209
	.byte	0x23
	.byte	0x9
	.byte	0x7
	.long	0x98
	.byte	0
	.uleb128 0x9
	.long	.LASF210
	.byte	0x23
	.byte	0xa
	.byte	0x7
	.long	0x98
	.byte	0x4
	.uleb128 0x9
	.long	.LASF211
	.byte	0x23
	.byte	0xb
	.byte	0x7
	.long	0x98
	.byte	0x8
	.uleb128 0x9
	.long	.LASF212
	.byte	0x23
	.byte	0xc
	.byte	0x7
	.long	0x98
	.byte	0xc
	.uleb128 0x9
	.long	.LASF213
	.byte	0x23
	.byte	0xd
	.byte	0x7
	.long	0x98
	.byte	0x10
	.uleb128 0x9
	.long	.LASF214
	.byte	0x23
	.byte	0xe
	.byte	0x7
	.long	0x98
	.byte	0x14
	.uleb128 0x9
	.long	.LASF215
	.byte	0x23
	.byte	0xf
	.byte	0x7
	.long	0x98
	.byte	0x18
	.uleb128 0x9
	.long	.LASF216
	.byte	0x23
	.byte	0x10
	.byte	0x7
	.long	0x98
	.byte	0x1c
	.uleb128 0x9
	.long	.LASF217
	.byte	0x23
	.byte	0x11
	.byte	0x7
	.long	0x98
	.byte	0x20
	.uleb128 0x9
	.long	.LASF218
	.byte	0x23
	.byte	0x14
	.byte	0xc
	.long	0xb7
	.byte	0x28
	.uleb128 0x9
	.long	.LASF219
	.byte	0x23
	.byte	0x15
	.byte	0xf
	.long	0xe5c
	.byte	0x30
	.byte	0
	.uleb128 0x4
	.long	0x1511
	.uleb128 0x42
	.long	.LASF220
	.byte	0x22
	.byte	0xde
	.byte	0xf
	.long	0xdb4
	.long	0x15c8
	.uleb128 0x13
	.long	0x11be
	.byte	0
	.uleb128 0x42
	.long	.LASF221
	.byte	0x22
	.byte	0x65
	.byte	0x11
	.long	0x1174
	.long	0x15e8
	.uleb128 0x13
	.long	0x1174
	.uleb128 0x13
	.long	0x11be
	.uleb128 0x13
	.long	0xdb4
	.byte	0
	.uleb128 0x42
	.long	.LASF222
	.byte	0x22
	.byte	0x6d
	.byte	0xc
	.long	0x98
	.long	0x1608
	.uleb128 0x13
	.long	0x11be
	.uleb128 0x13
	.long	0x11be
	.uleb128 0x13
	.long	0xdb4
	.byte	0
	.uleb128 0x42
	.long	.LASF223
	.byte	0x22
	.byte	0x5c
	.byte	0x11
	.long	0x1174
	.long	0x1628
	.uleb128 0x13
	.long	0x1174
	.uleb128 0x13
	.long	0x11be
	.uleb128 0x13
	.long	0xdb4
	.byte	0
	.uleb128 0x3f
	.long	.LASF224
	.byte	0x22
	.value	0x157
	.byte	0xf
	.long	0xdb4
	.long	0x164e
	.uleb128 0x13
	.long	0x174
	.uleb128 0x13
	.long	0x164e
	.uleb128 0x13
	.long	0xdb4
	.uleb128 0x13
	.long	0x1263
	.byte	0
	.uleb128 0x7
	.byte	0x8
	.long	0x11be
	.uleb128 0x42
	.long	.LASF225
	.byte	0x22
	.byte	0xbf
	.byte	0xf
	.long	0xdb4
	.long	0x166f
	.uleb128 0x13
	.long	0x11be
	.uleb128 0x13
	.long	0x11be
	.byte	0
	.uleb128 0x3f
	.long	.LASF226
	.byte	0x22
	.value	0x179
	.byte	0xf
	.long	0xd80
	.long	0x168b
	.uleb128 0x13
	.long	0x11be
	.uleb128 0x13
	.long	0x168b
	.byte	0
	.uleb128 0x7
	.byte	0x8
	.long	0x1174
	.uleb128 0x3f
	.long	.LASF227
	.byte	0x22
	.value	0x17e
	.byte	0xe
	.long	0xd87
	.long	0x16ad
	.uleb128 0x13
	.long	0x11be
	.uleb128 0x13
	.long	0x168b
	.byte	0
	.uleb128 0x42
	.long	.LASF228
	.byte	0x22
	.byte	0xd9
	.byte	0x11
	.long	0x1174
	.long	0x16cd
	.uleb128 0x13
	.long	0x1174
	.uleb128 0x13
	.long	0x11be
	.uleb128 0x13
	.long	0x168b
	.byte	0
	.uleb128 0x3f
	.long	.LASF229
	.byte	0x22
	.value	0x1ac
	.byte	0x11
	.long	0xb7
	.long	0x16ee
	.uleb128 0x13
	.long	0x11be
	.uleb128 0x13
	.long	0x168b
	.uleb128 0x13
	.long	0x98
	.byte	0
	.uleb128 0x3f
	.long	.LASF230
	.byte	0x22
	.value	0x1b1
	.byte	0x1a
	.long	0x42
	.long	0x170f
	.uleb128 0x13
	.long	0x11be
	.uleb128 0x13
	.long	0x168b
	.uleb128 0x13
	.long	0x98
	.byte	0
	.uleb128 0x42
	.long	.LASF231
	.byte	0x22
	.byte	0x87
	.byte	0xf
	.long	0xdb4
	.long	0x172f
	.uleb128 0x13
	.long	0x1174
	.uleb128 0x13
	.long	0x11be
	.uleb128 0x13
	.long	0xdb4
	.byte	0
	.uleb128 0x3f
	.long	.LASF232
	.byte	0x22
	.value	0x120
	.byte	0xc
	.long	0x98
	.long	0x1746
	.uleb128 0x13
	.long	0xf0d
	.byte	0
	.uleb128 0x3f
	.long	.LASF233
	.byte	0x22
	.value	0x102
	.byte	0xc
	.long	0x98
	.long	0x1767
	.uleb128 0x13
	.long	0x11be
	.uleb128 0x13
	.long	0x11be
	.uleb128 0x13
	.long	0xdb4
	.byte	0
	.uleb128 0x3f
	.long	.LASF234
	.byte	0x22
	.value	0x106
	.byte	0x11
	.long	0x1174
	.long	0x1788
	.uleb128 0x13
	.long	0x1174
	.uleb128 0x13
	.long	0x11be
	.uleb128 0x13
	.long	0xdb4
	.byte	0
	.uleb128 0x3f
	.long	.LASF235
	.byte	0x22
	.value	0x10b
	.byte	0x11
	.long	0x1174
	.long	0x17a9
	.uleb128 0x13
	.long	0x1174
	.uleb128 0x13
	.long	0x11be
	.uleb128 0x13
	.long	0xdb4
	.byte	0
	.uleb128 0x3f
	.long	.LASF236
	.byte	0x22
	.value	0x10f
	.byte	0x11
	.long	0x1174
	.long	0x17ca
	.uleb128 0x13
	.long	0x1174
	.uleb128 0x13
	.long	0x117a
	.uleb128 0x13
	.long	0xdb4
	.byte	0
	.uleb128 0x3f
	.long	.LASF237
	.byte	0x22
	.value	0x24b
	.byte	0xc
	.long	0x98
	.long	0x17e2
	.uleb128 0x13
	.long	0x11be
	.uleb128 0x40
	.byte	0
	.uleb128 0x24
	.long	.LASF238
	.byte	0x22
	.value	0x284
	.byte	0xc
	.long	.LASF239
	.long	0x98
	.long	0x17fe
	.uleb128 0x13
	.long	0x11be
	.uleb128 0x40
	.byte	0
	.uleb128 0x44
	.long	.LASF240
	.byte	0x22
	.byte	0xa1
	.byte	0x1d
	.long	.LASF240
	.long	0x11be
	.long	0x181d
	.uleb128 0x13
	.long	0x11be
	.uleb128 0x13
	.long	0x117a
	.byte	0
	.uleb128 0x44
	.long	.LASF240
	.byte	0x22
	.byte	0x9f
	.byte	0x17
	.long	.LASF240
	.long	0x1174
	.long	0x183c
	.uleb128 0x13
	.long	0x1174
	.uleb128 0x13
	.long	0x117a
	.byte	0
	.uleb128 0x44
	.long	.LASF241
	.byte	0x22
	.byte	0xc5
	.byte	0x1d
	.long	.LASF241
	.long	0x11be
	.long	0x185b
	.uleb128 0x13
	.long	0x11be
	.uleb128 0x13
	.long	0x11be
	.byte	0
	.uleb128 0x44
	.long	.LASF241
	.byte	0x22
	.byte	0xc3
	.byte	0x17
	.long	.LASF241
	.long	0x1174
	.long	0x187a
	.uleb128 0x13
	.long	0x1174
	.uleb128 0x13
	.long	0x11be
	.byte	0
	.uleb128 0x44
	.long	.LASF242
	.byte	0x22
	.byte	0xab
	.byte	0x1d
	.long	.LASF242
	.long	0x11be
	.long	0x1899
	.uleb128 0x13
	.long	0x11be
	.uleb128 0x13
	.long	0x117a
	.byte	0
	.uleb128 0x44
	.long	.LASF242
	.byte	0x22
	.byte	0xa9
	.byte	0x17
	.long	.LASF242
	.long	0x1174
	.long	0x18b8
	.uleb128 0x13
	.long	0x1174
	.uleb128 0x13
	.long	0x117a
	.byte	0
	.uleb128 0x44
	.long	.LASF243
	.byte	0x22
	.byte	0xd0
	.byte	0x1d
	.long	.LASF243
	.long	0x11be
	.long	0x18d7
	.uleb128 0x13
	.long	0x11be
	.uleb128 0x13
	.long	0x11be
	.byte	0
	.uleb128 0x44
	.long	.LASF243
	.byte	0x22
	.byte	0xce
	.byte	0x17
	.long	.LASF243
	.long	0x1174
	.long	0x18f6
	.uleb128 0x13
	.long	0x1174
	.uleb128 0x13
	.long	0x11be
	.byte	0
	.uleb128 0x44
	.long	.LASF244
	.byte	0x22
	.byte	0xf9
	.byte	0x1d
	.long	.LASF244
	.long	0x11be
	.long	0x191a
	.uleb128 0x13
	.long	0x11be
	.uleb128 0x13
	.long	0x117a
	.uleb128 0x13
	.long	0xdb4
	.byte	0
	.uleb128 0x44
	.long	.LASF244
	.byte	0x22
	.byte	0xf7
	.byte	0x17
	.long	.LASF244
	.long	0x1174
	.long	0x193e
	.uleb128 0x13
	.long	0x1174
	.uleb128 0x13
	.long	0x117a
	.uleb128 0x13
	.long	0xdb4
	.byte	0
	.uleb128 0x3f
	.long	.LASF245
	.byte	0x22
	.value	0x180
	.byte	0x14
	.long	0xd79
	.long	0x195a
	.uleb128 0x13
	.long	0x11be
	.uleb128 0x13
	.long	0x168b
	.byte	0
	.uleb128 0x3f
	.long	.LASF246
	.byte	0x22
	.value	0x1b9
	.byte	0x16
	.long	0xd72
	.long	0x197b
	.uleb128 0x13
	.long	0x11be
	.uleb128 0x13
	.long	0x168b
	.uleb128 0x13
	.long	0x98
	.byte	0
	.uleb128 0x3f
	.long	.LASF247
	.byte	0x22
	.value	0x1c0
	.byte	0x1f
	.long	0xd6b
	.long	0x199c
	.uleb128 0x13
	.long	0x11be
	.uleb128 0x13
	.long	0x168b
	.uleb128 0x13
	.long	0x98
	.byte	0
	.uleb128 0x45
	.long	.LASF404
	.uleb128 0x7
	.byte	0x8
	.long	0x43b
	.uleb128 0x7
	.byte	0x8
	.long	0x604
	.uleb128 0x46
	.byte	0x8
	.long	0x604
	.uleb128 0x47
	.byte	0x8
	.long	0x43b
	.uleb128 0x46
	.byte	0x8
	.long	0x43b
	.uleb128 0x2
	.byte	0x1
	.byte	0x2
	.long	.LASF248
	.uleb128 0x7
	.byte	0x8
	.long	0x642
	.uleb128 0x2
	.byte	0x10
	.byte	0x7
	.long	.LASF249
	.uleb128 0x2
	.byte	0x10
	.byte	0x5
	.long	.LASF250
	.uleb128 0x2
	.byte	0x2
	.byte	0x10
	.long	.LASF251
	.uleb128 0x2
	.byte	0x4
	.byte	0x10
	.long	.LASF252
	.uleb128 0x7
	.byte	0x8
	.long	0x666
	.uleb128 0x48
	.long	0x690
	.uleb128 0xf
	.long	.LASF253
	.byte	0xb
	.byte	0x38
	.byte	0xb
	.long	0x1a08
	.uleb128 0x29
	.byte	0xb
	.byte	0x3a
	.byte	0x18
	.long	0x69e
	.byte	0
	.uleb128 0x46
	.byte	0x8
	.long	0x6d0
	.uleb128 0x46
	.byte	0x8
	.long	0x6dd
	.uleb128 0x7
	.byte	0x8
	.long	0x6dd
	.uleb128 0x7
	.byte	0x8
	.long	0x6d0
	.uleb128 0x46
	.byte	0x8
	.long	0x81c
	.uleb128 0x3
	.long	.LASF254
	.byte	0x24
	.byte	0x18
	.byte	0x13
	.long	0x5c
	.uleb128 0x3
	.long	.LASF255
	.byte	0x24
	.byte	0x19
	.byte	0x14
	.long	0x7b
	.uleb128 0x3
	.long	.LASF256
	.byte	0x24
	.byte	0x1a
	.byte	0x14
	.long	0x9f
	.uleb128 0x3
	.long	.LASF257
	.byte	0x24
	.byte	0x1b
	.byte	0x14
	.long	0xbe
	.uleb128 0x3
	.long	.LASF258
	.byte	0x25
	.byte	0x2b
	.byte	0x18
	.long	0xca
	.uleb128 0x3
	.long	.LASF259
	.byte	0x25
	.byte	0x2c
	.byte	0x19
	.long	0xe2
	.uleb128 0x3
	.long	.LASF260
	.byte	0x25
	.byte	0x2d
	.byte	0x19
	.long	0xfa
	.uleb128 0x3
	.long	.LASF261
	.byte	0x25
	.byte	0x2e
	.byte	0x19
	.long	0x112
	.uleb128 0x3
	.long	.LASF262
	.byte	0x25
	.byte	0x31
	.byte	0x19
	.long	0xd6
	.uleb128 0x3
	.long	.LASF263
	.byte	0x25
	.byte	0x32
	.byte	0x1a
	.long	0xee
	.uleb128 0x3
	.long	.LASF264
	.byte	0x25
	.byte	0x33
	.byte	0x1a
	.long	0x106
	.uleb128 0x3
	.long	.LASF265
	.byte	0x25
	.byte	0x34
	.byte	0x1a
	.long	0x11e
	.uleb128 0x3
	.long	.LASF266
	.byte	0x25
	.byte	0x3a
	.byte	0x16
	.long	0x55
	.uleb128 0x3
	.long	.LASF267
	.byte	0x25
	.byte	0x3c
	.byte	0x13
	.long	0xb7
	.uleb128 0x3
	.long	.LASF268
	.byte	0x25
	.byte	0x3d
	.byte	0x13
	.long	0xb7
	.uleb128 0x3
	.long	.LASF269
	.byte	0x25
	.byte	0x3e
	.byte	0x13
	.long	0xb7
	.uleb128 0x3
	.long	.LASF270
	.byte	0x25
	.byte	0x47
	.byte	0x18
	.long	0x2d
	.uleb128 0x3
	.long	.LASF271
	.byte	0x25
	.byte	0x49
	.byte	0x1b
	.long	0x42
	.uleb128 0x3
	.long	.LASF272
	.byte	0x25
	.byte	0x4a
	.byte	0x1b
	.long	0x42
	.uleb128 0x3
	.long	.LASF273
	.byte	0x25
	.byte	0x4b
	.byte	0x1b
	.long	0x42
	.uleb128 0x3
	.long	.LASF274
	.byte	0x25
	.byte	0x57
	.byte	0x13
	.long	0xb7
	.uleb128 0x3
	.long	.LASF275
	.byte	0x25
	.byte	0x5a
	.byte	0x1b
	.long	0x42
	.uleb128 0x3
	.long	.LASF276
	.byte	0x25
	.byte	0x65
	.byte	0x15
	.long	0x12a
	.uleb128 0x3
	.long	.LASF277
	.byte	0x25
	.byte	0x66
	.byte	0x16
	.long	0x136
	.uleb128 0x8
	.long	.LASF278
	.byte	0x60
	.byte	0x26
	.byte	0x33
	.byte	0x8
	.long	0x1c8c
	.uleb128 0x9
	.long	.LASF279
	.byte	0x26
	.byte	0x37
	.byte	0x9
	.long	0x174
	.byte	0
	.uleb128 0x9
	.long	.LASF280
	.byte	0x26
	.byte	0x38
	.byte	0x9
	.long	0x174
	.byte	0x8
	.uleb128 0x9
	.long	.LASF281
	.byte	0x26
	.byte	0x3e
	.byte	0x9
	.long	0x174
	.byte	0x10
	.uleb128 0x9
	.long	.LASF282
	.byte	0x26
	.byte	0x44
	.byte	0x9
	.long	0x174
	.byte	0x18
	.uleb128 0x9
	.long	.LASF283
	.byte	0x26
	.byte	0x45
	.byte	0x9
	.long	0x174
	.byte	0x20
	.uleb128 0x9
	.long	.LASF284
	.byte	0x26
	.byte	0x46
	.byte	0x9
	.long	0x174
	.byte	0x28
	.uleb128 0x9
	.long	.LASF285
	.byte	0x26
	.byte	0x47
	.byte	0x9
	.long	0x174
	.byte	0x30
	.uleb128 0x9
	.long	.LASF286
	.byte	0x26
	.byte	0x48
	.byte	0x9
	.long	0x174
	.byte	0x38
	.uleb128 0x9
	.long	.LASF287
	.byte	0x26
	.byte	0x49
	.byte	0x9
	.long	0x174
	.byte	0x40
	.uleb128 0x9
	.long	.LASF288
	.byte	0x26
	.byte	0x4a
	.byte	0x9
	.long	0x174
	.byte	0x48
	.uleb128 0x9
	.long	.LASF289
	.byte	0x26
	.byte	0x4b
	.byte	0x8
	.long	0x17a
	.byte	0x50
	.uleb128 0x9
	.long	.LASF290
	.byte	0x26
	.byte	0x4c
	.byte	0x8
	.long	0x17a
	.byte	0x51
	.uleb128 0x9
	.long	.LASF291
	.byte	0x26
	.byte	0x4e
	.byte	0x8
	.long	0x17a
	.byte	0x52
	.uleb128 0x9
	.long	.LASF292
	.byte	0x26
	.byte	0x50
	.byte	0x8
	.long	0x17a
	.byte	0x53
	.uleb128 0x9
	.long	.LASF293
	.byte	0x26
	.byte	0x52
	.byte	0x8
	.long	0x17a
	.byte	0x54
	.uleb128 0x9
	.long	.LASF294
	.byte	0x26
	.byte	0x54
	.byte	0x8
	.long	0x17a
	.byte	0x55
	.uleb128 0x9
	.long	.LASF295
	.byte	0x26
	.byte	0x5b
	.byte	0x8
	.long	0x17a
	.byte	0x56
	.uleb128 0x9
	.long	.LASF296
	.byte	0x26
	.byte	0x5c
	.byte	0x8
	.long	0x17a
	.byte	0x57
	.uleb128 0x9
	.long	.LASF297
	.byte	0x26
	.byte	0x5f
	.byte	0x8
	.long	0x17a
	.byte	0x58
	.uleb128 0x9
	.long	.LASF298
	.byte	0x26
	.byte	0x61
	.byte	0x8
	.long	0x17a
	.byte	0x59
	.uleb128 0x9
	.long	.LASF299
	.byte	0x26
	.byte	0x63
	.byte	0x8
	.long	0x17a
	.byte	0x5a
	.uleb128 0x9
	.long	.LASF300
	.byte	0x26
	.byte	0x65
	.byte	0x8
	.long	0x17a
	.byte	0x5b
	.uleb128 0x9
	.long	.LASF301
	.byte	0x26
	.byte	0x6c
	.byte	0x8
	.long	0x17a
	.byte	0x5c
	.uleb128 0x9
	.long	.LASF302
	.byte	0x26
	.byte	0x6d
	.byte	0x8
	.long	0x17a
	.byte	0x5d
	.byte	0
	.uleb128 0x42
	.long	.LASF303
	.byte	0x26
	.byte	0x7a
	.byte	0xe
	.long	0x174
	.long	0x1ca7
	.uleb128 0x13
	.long	0x98
	.uleb128 0x13
	.long	0xe5c
	.byte	0
	.uleb128 0x49
	.long	.LASF305
	.byte	0x26
	.byte	0x7d
	.byte	0x16
	.long	0x1cb3
	.uleb128 0x7
	.byte	0x8
	.long	0x1b46
	.uleb128 0x3
	.long	.LASF306
	.byte	0x27
	.byte	0x20
	.byte	0xd
	.long	0x98
	.uleb128 0x3f
	.long	.LASF307
	.byte	0x19
	.value	0x253
	.byte	0xc
	.long	0x98
	.long	0x1cdc
	.uleb128 0x13
	.long	0x1cdc
	.byte	0
	.uleb128 0x7
	.byte	0x8
	.long	0x1ce2
	.uleb128 0x4a
	.uleb128 0x24
	.long	.LASF308
	.byte	0x19
	.value	0x258
	.byte	0x12
	.long	.LASF308
	.long	0x98
	.long	0x1cfe
	.uleb128 0x13
	.long	0x1cdc
	.byte	0
	.uleb128 0x42
	.long	.LASF309
	.byte	0x19
	.byte	0x65
	.byte	0xf
	.long	0xd80
	.long	0x1d14
	.uleb128 0x13
	.long	0xe5c
	.byte	0
	.uleb128 0x42
	.long	.LASF310
	.byte	0x19
	.byte	0x68
	.byte	0xc
	.long	0x98
	.long	0x1d2a
	.uleb128 0x13
	.long	0xe5c
	.byte	0
	.uleb128 0x42
	.long	.LASF311
	.byte	0x19
	.byte	0x6b
	.byte	0x11
	.long	0xb7
	.long	0x1d40
	.uleb128 0x13
	.long	0xe5c
	.byte	0
	.uleb128 0x3f
	.long	.LASF312
	.byte	0x19
	.value	0x334
	.byte	0xe
	.long	0x172
	.long	0x1d6b
	.uleb128 0x13
	.long	0xec9
	.uleb128 0x13
	.long	0xec9
	.uleb128 0x13
	.long	0xdb4
	.uleb128 0x13
	.long	0xdb4
	.uleb128 0x13
	.long	0xea2
	.byte	0
	.uleb128 0x4b
	.string	"div"
	.byte	0x19
	.value	0x354
	.byte	0xe
	.long	0xde8
	.long	0x1d87
	.uleb128 0x13
	.long	0x98
	.uleb128 0x13
	.long	0x98
	.byte	0
	.uleb128 0x3f
	.long	.LASF313
	.byte	0x19
	.value	0x27a
	.byte	0xe
	.long	0x174
	.long	0x1d9e
	.uleb128 0x13
	.long	0xe5c
	.byte	0
	.uleb128 0x3f
	.long	.LASF314
	.byte	0x19
	.value	0x356
	.byte	0xf
	.long	0xe1c
	.long	0x1dba
	.uleb128 0x13
	.long	0xb7
	.uleb128 0x13
	.long	0xb7
	.byte	0
	.uleb128 0x3f
	.long	.LASF315
	.byte	0x19
	.value	0x39a
	.byte	0xc
	.long	0x98
	.long	0x1dd6
	.uleb128 0x13
	.long	0xe5c
	.uleb128 0x13
	.long	0xdb4
	.byte	0
	.uleb128 0x3f
	.long	.LASF316
	.byte	0x19
	.value	0x3a5
	.byte	0xf
	.long	0xdb4
	.long	0x1df7
	.uleb128 0x13
	.long	0x1174
	.uleb128 0x13
	.long	0xe5c
	.uleb128 0x13
	.long	0xdb4
	.byte	0
	.uleb128 0x3f
	.long	.LASF317
	.byte	0x19
	.value	0x39d
	.byte	0xc
	.long	0x98
	.long	0x1e18
	.uleb128 0x13
	.long	0x1174
	.uleb128 0x13
	.long	0xe5c
	.uleb128 0x13
	.long	0xdb4
	.byte	0
	.uleb128 0x4c
	.long	.LASF320
	.byte	0x19
	.value	0x33e
	.byte	0xd
	.long	0x1e3a
	.uleb128 0x13
	.long	0x172
	.uleb128 0x13
	.long	0xdb4
	.uleb128 0x13
	.long	0xdb4
	.uleb128 0x13
	.long	0xea2
	.byte	0
	.uleb128 0x4d
	.long	.LASF318
	.byte	0x19
	.value	0x26f
	.byte	0xd
	.long	0x1e4d
	.uleb128 0x13
	.long	0x98
	.byte	0
	.uleb128 0x41
	.long	.LASF319
	.byte	0x19
	.value	0x1c5
	.byte	0xc
	.long	0x98
	.uleb128 0x4c
	.long	.LASF321
	.byte	0x19
	.value	0x1c7
	.byte	0xd
	.long	0x1e6d
	.uleb128 0x13
	.long	0x3b
	.byte	0
	.uleb128 0x42
	.long	.LASF322
	.byte	0x19
	.byte	0x75
	.byte	0xf
	.long	0xd80
	.long	0x1e88
	.uleb128 0x13
	.long	0xe5c
	.uleb128 0x13
	.long	0x1e88
	.byte	0
	.uleb128 0x7
	.byte	0x8
	.long	0x174
	.uleb128 0x42
	.long	.LASF323
	.byte	0x19
	.byte	0xb0
	.byte	0x11
	.long	0xb7
	.long	0x1eae
	.uleb128 0x13
	.long	0xe5c
	.uleb128 0x13
	.long	0x1e88
	.uleb128 0x13
	.long	0x98
	.byte	0
	.uleb128 0x42
	.long	.LASF324
	.byte	0x19
	.byte	0xb4
	.byte	0x1a
	.long	0x42
	.long	0x1ece
	.uleb128 0x13
	.long	0xe5c
	.uleb128 0x13
	.long	0x1e88
	.uleb128 0x13
	.long	0x98
	.byte	0
	.uleb128 0x3f
	.long	.LASF325
	.byte	0x19
	.value	0x310
	.byte	0xc
	.long	0x98
	.long	0x1ee5
	.uleb128 0x13
	.long	0xe5c
	.byte	0
	.uleb128 0x3f
	.long	.LASF326
	.byte	0x19
	.value	0x3a8
	.byte	0xf
	.long	0xdb4
	.long	0x1f06
	.uleb128 0x13
	.long	0x174
	.uleb128 0x13
	.long	0x11be
	.uleb128 0x13
	.long	0xdb4
	.byte	0
	.uleb128 0x3f
	.long	.LASF327
	.byte	0x19
	.value	0x3a1
	.byte	0xc
	.long	0x98
	.long	0x1f22
	.uleb128 0x13
	.long	0x174
	.uleb128 0x13
	.long	0x117a
	.byte	0
	.uleb128 0x3f
	.long	.LASF328
	.byte	0x19
	.value	0x35a
	.byte	0x1e
	.long	0xe50
	.long	0x1f3e
	.uleb128 0x13
	.long	0xd72
	.uleb128 0x13
	.long	0xd72
	.byte	0
	.uleb128 0x42
	.long	.LASF329
	.byte	0x19
	.byte	0x70
	.byte	0x24
	.long	0xd72
	.long	0x1f54
	.uleb128 0x13
	.long	0xe5c
	.byte	0
	.uleb128 0x42
	.long	.LASF330
	.byte	0x19
	.byte	0xc8
	.byte	0x16
	.long	0xd72
	.long	0x1f74
	.uleb128 0x13
	.long	0xe5c
	.uleb128 0x13
	.long	0x1e88
	.uleb128 0x13
	.long	0x98
	.byte	0
	.uleb128 0x42
	.long	.LASF331
	.byte	0x19
	.byte	0xcd
	.byte	0x1f
	.long	0xd6b
	.long	0x1f94
	.uleb128 0x13
	.long	0xe5c
	.uleb128 0x13
	.long	0x1e88
	.uleb128 0x13
	.long	0x98
	.byte	0
	.uleb128 0x42
	.long	.LASF332
	.byte	0x19
	.byte	0x7b
	.byte	0xe
	.long	0xd87
	.long	0x1faf
	.uleb128 0x13
	.long	0xe5c
	.uleb128 0x13
	.long	0x1e88
	.byte	0
	.uleb128 0x42
	.long	.LASF333
	.byte	0x19
	.byte	0x7e
	.byte	0x14
	.long	0xd79
	.long	0x1fca
	.uleb128 0x13
	.long	0xe5c
	.uleb128 0x13
	.long	0x1e88
	.byte	0
	.uleb128 0x8
	.long	.LASF334
	.byte	0x10
	.byte	0x28
	.byte	0xa
	.byte	0x10
	.long	0x1ff2
	.uleb128 0x9
	.long	.LASF335
	.byte	0x28
	.byte	0xc
	.byte	0xb
	.long	0x142
	.byte	0
	.uleb128 0x9
	.long	.LASF336
	.byte	0x28
	.byte	0xd
	.byte	0xf
	.long	0xf63
	.byte	0x8
	.byte	0
	.uleb128 0x3
	.long	.LASF337
	.byte	0x28
	.byte	0xe
	.byte	0x3
	.long	0x1fca
	.uleb128 0x4e
	.long	.LASF405
	.byte	0x20
	.byte	0x2b
	.byte	0xe
	.uleb128 0x4f
	.long	.LASF338
	.uleb128 0x7
	.byte	0x8
	.long	0x2006
	.uleb128 0x7
	.byte	0x8
	.long	0xf8c
	.uleb128 0x37
	.long	0x17a
	.long	0x2027
	.uleb128 0x38
	.long	0x42
	.byte	0
	.byte	0
	.uleb128 0x7
	.byte	0x8
	.long	0x1ffe
	.uleb128 0x4f
	.long	.LASF339
	.uleb128 0x7
	.byte	0x8
	.long	0x202d
	.uleb128 0x4f
	.long	.LASF340
	.uleb128 0x7
	.byte	0x8
	.long	0x2038
	.uleb128 0x37
	.long	0x17a
	.long	0x2053
	.uleb128 0x38
	.long	0x42
	.byte	0x13
	.byte	0
	.uleb128 0x3
	.long	.LASF341
	.byte	0x29
	.byte	0x54
	.byte	0x12
	.long	0x1ff2
	.uleb128 0x4
	.long	0x2053
	.uleb128 0x7
	.byte	0x8
	.long	0x1113
	.uleb128 0x4c
	.long	.LASF342
	.byte	0x29
	.value	0x2f5
	.byte	0xd
	.long	0x207d
	.uleb128 0x13
	.long	0x2064
	.byte	0
	.uleb128 0x42
	.long	.LASF343
	.byte	0x29
	.byte	0xd5
	.byte	0xc
	.long	0x98
	.long	0x2093
	.uleb128 0x13
	.long	0x2064
	.byte	0
	.uleb128 0x3f
	.long	.LASF344
	.byte	0x29
	.value	0x2f7
	.byte	0xc
	.long	0x98
	.long	0x20aa
	.uleb128 0x13
	.long	0x2064
	.byte	0
	.uleb128 0x3f
	.long	.LASF345
	.byte	0x29
	.value	0x2f9
	.byte	0xc
	.long	0x98
	.long	0x20c1
	.uleb128 0x13
	.long	0x2064
	.byte	0
	.uleb128 0x42
	.long	.LASF346
	.byte	0x29
	.byte	0xda
	.byte	0xc
	.long	0x98
	.long	0x20d7
	.uleb128 0x13
	.long	0x2064
	.byte	0
	.uleb128 0x3f
	.long	.LASF347
	.byte	0x29
	.value	0x1e5
	.byte	0xc
	.long	0x98
	.long	0x20ee
	.uleb128 0x13
	.long	0x2064
	.byte	0
	.uleb128 0x3f
	.long	.LASF348
	.byte	0x29
	.value	0x2db
	.byte	0xc
	.long	0x98
	.long	0x210a
	.uleb128 0x13
	.long	0x2064
	.uleb128 0x13
	.long	0x210a
	.byte	0
	.uleb128 0x7
	.byte	0x8
	.long	0x2053
	.uleb128 0x3f
	.long	.LASF349
	.byte	0x29
	.value	0x234
	.byte	0xe
	.long	0x174
	.long	0x2131
	.uleb128 0x13
	.long	0x174
	.uleb128 0x13
	.long	0x98
	.uleb128 0x13
	.long	0x2064
	.byte	0
	.uleb128 0x42
	.long	.LASF350
	.byte	0x29
	.byte	0xf6
	.byte	0xe
	.long	0x2064
	.long	0x214c
	.uleb128 0x13
	.long	0xe5c
	.uleb128 0x13
	.long	0xe5c
	.byte	0
	.uleb128 0x3f
	.long	.LASF351
	.byte	0x29
	.value	0x286
	.byte	0xf
	.long	0xdb4
	.long	0x2172
	.uleb128 0x13
	.long	0x172
	.uleb128 0x13
	.long	0xdb4
	.uleb128 0x13
	.long	0xdb4
	.uleb128 0x13
	.long	0x2064
	.byte	0
	.uleb128 0x42
	.long	.LASF352
	.byte	0x29
	.byte	0xfc
	.byte	0xe
	.long	0x2064
	.long	0x2192
	.uleb128 0x13
	.long	0xe5c
	.uleb128 0x13
	.long	0xe5c
	.uleb128 0x13
	.long	0x2064
	.byte	0
	.uleb128 0x3f
	.long	.LASF353
	.byte	0x29
	.value	0x2ac
	.byte	0xc
	.long	0x98
	.long	0x21b3
	.uleb128 0x13
	.long	0x2064
	.uleb128 0x13
	.long	0xb7
	.uleb128 0x13
	.long	0x98
	.byte	0
	.uleb128 0x3f
	.long	.LASF354
	.byte	0x29
	.value	0x2e0
	.byte	0xc
	.long	0x98
	.long	0x21cf
	.uleb128 0x13
	.long	0x2064
	.uleb128 0x13
	.long	0x21cf
	.byte	0
	.uleb128 0x7
	.byte	0x8
	.long	0x205f
	.uleb128 0x3f
	.long	.LASF355
	.byte	0x29
	.value	0x2b1
	.byte	0x11
	.long	0xb7
	.long	0x21ec
	.uleb128 0x13
	.long	0x2064
	.byte	0
	.uleb128 0x3f
	.long	.LASF356
	.byte	0x29
	.value	0x1e6
	.byte	0xc
	.long	0x98
	.long	0x2203
	.uleb128 0x13
	.long	0x2064
	.byte	0
	.uleb128 0x41
	.long	.LASF357
	.byte	0x29
	.value	0x1ec
	.byte	0xc
	.long	0x98
	.uleb128 0x4c
	.long	.LASF358
	.byte	0x29
	.value	0x307
	.byte	0xd
	.long	0x2223
	.uleb128 0x13
	.long	0xe5c
	.byte	0
	.uleb128 0x42
	.long	.LASF359
	.byte	0x29
	.byte	0x92
	.byte	0xc
	.long	0x98
	.long	0x2239
	.uleb128 0x13
	.long	0xe5c
	.byte	0
	.uleb128 0x42
	.long	.LASF360
	.byte	0x29
	.byte	0x94
	.byte	0xc
	.long	0x98
	.long	0x2254
	.uleb128 0x13
	.long	0xe5c
	.uleb128 0x13
	.long	0xe5c
	.byte	0
	.uleb128 0x4c
	.long	.LASF361
	.byte	0x29
	.value	0x2b6
	.byte	0xd
	.long	0x2267
	.uleb128 0x13
	.long	0x2064
	.byte	0
	.uleb128 0x4c
	.long	.LASF362
	.byte	0x29
	.value	0x130
	.byte	0xd
	.long	0x227f
	.uleb128 0x13
	.long	0x2064
	.uleb128 0x13
	.long	0x174
	.byte	0
	.uleb128 0x3f
	.long	.LASF363
	.byte	0x29
	.value	0x134
	.byte	0xc
	.long	0x98
	.long	0x22a5
	.uleb128 0x13
	.long	0x2064
	.uleb128 0x13
	.long	0x174
	.uleb128 0x13
	.long	0x98
	.uleb128 0x13
	.long	0xdb4
	.byte	0
	.uleb128 0x49
	.long	.LASF364
	.byte	0x29
	.byte	0xad
	.byte	0xe
	.long	0x2064
	.uleb128 0x42
	.long	.LASF365
	.byte	0x29
	.byte	0xbb
	.byte	0xe
	.long	0x174
	.long	0x22c7
	.uleb128 0x13
	.long	0x174
	.byte	0
	.uleb128 0x3f
	.long	.LASF366
	.byte	0x29
	.value	0x27f
	.byte	0xc
	.long	0x98
	.long	0x22e3
	.uleb128 0x13
	.long	0x98
	.uleb128 0x13
	.long	0x2064
	.byte	0
	.uleb128 0x7
	.byte	0x8
	.long	0xba4
	.uleb128 0x46
	.byte	0x8
	.long	0xc53
	.uleb128 0x46
	.byte	0x8
	.long	0xba4
	.uleb128 0x3
	.long	.LASF367
	.byte	0x2a
	.byte	0x26
	.byte	0x1b
	.long	0x42
	.uleb128 0x3
	.long	.LASF368
	.byte	0x2b
	.byte	0x30
	.byte	0x1a
	.long	0x230d
	.uleb128 0x7
	.byte	0x8
	.long	0x93
	.uleb128 0x42
	.long	.LASF369
	.byte	0x2a
	.byte	0x9f
	.byte	0xc
	.long	0x98
	.long	0x232e
	.uleb128 0x13
	.long	0xf0d
	.uleb128 0x13
	.long	0x22f5
	.byte	0
	.uleb128 0x42
	.long	.LASF370
	.byte	0x2b
	.byte	0x37
	.byte	0xf
	.long	0xf0d
	.long	0x2349
	.uleb128 0x13
	.long	0xf0d
	.uleb128 0x13
	.long	0x2301
	.byte	0
	.uleb128 0x42
	.long	.LASF371
	.byte	0x2b
	.byte	0x34
	.byte	0x12
	.long	0x2301
	.long	0x235f
	.uleb128 0x13
	.long	0xe5c
	.byte	0
	.uleb128 0x42
	.long	.LASF372
	.byte	0x2a
	.byte	0x9b
	.byte	0x11
	.long	0x22f5
	.long	0x2375
	.uleb128 0x13
	.long	0xe5c
	.byte	0
	.uleb128 0x50
	.long	0xcc9
	.uleb128 0x9
	.byte	0x3
	.quad	_ZStL8__ioinit
	.uleb128 0x51
	.long	.LASF406
	.long	0x172
	.uleb128 0x52
	.long	.LASF407
	.quad	.LFB2305
	.quad	.LFE2305-.LFB2305
	.uleb128 0x1
	.byte	0x9c
	.uleb128 0x53
	.long	.LASF408
	.quad	.LFB2304
	.quad	.LFE2304-.LFB2304
	.uleb128 0x1
	.byte	0x9c
	.long	0x23de
	.uleb128 0x54
	.long	.LASF373
	.byte	0x1
	.byte	0x60
	.byte	0x1
	.long	0x98
	.uleb128 0x2
	.byte	0x91
	.sleb128 -20
	.uleb128 0x54
	.long	.LASF374
	.byte	0x1
	.byte	0x60
	.byte	0x1
	.long	0x98
	.uleb128 0x2
	.byte	0x91
	.sleb128 -24
	.byte	0
	.uleb128 0x55
	.long	.LASF389
	.byte	0x1
	.byte	0x5c
	.byte	0x5
	.long	0x98
	.quad	.LFB1805
	.quad	.LFE1805-.LFB1805
	.uleb128 0x1
	.byte	0x9c
	.uleb128 0x56
	.long	.LASF375
	.byte	0x1
	.byte	0x43
	.byte	0x8
	.long	.LASF377
	.long	0xd80
	.quad	.LFB1804
	.quad	.LFE1804-.LFB1804
	.uleb128 0x1
	.byte	0x9c
	.long	0x249f
	.uleb128 0x54
	.long	.LASF378
	.byte	0x1
	.byte	0x43
	.byte	0x26
	.long	0x3b
	.uleb128 0x3
	.byte	0x91
	.sleb128 -100
	.uleb128 0x57
	.long	.LASF380
	.byte	0x1
	.byte	0x47
	.byte	0x14
	.long	0x186
	.uleb128 0x3
	.byte	0x91
	.sleb128 -80
	.uleb128 0x57
	.long	.LASF381
	.byte	0x1
	.byte	0x48
	.byte	0x14
	.long	0x186
	.uleb128 0x3
	.byte	0x91
	.sleb128 -96
	.uleb128 0x57
	.long	.LASF382
	.byte	0x1
	.byte	0x54
	.byte	0xc
	.long	0xd80
	.uleb128 0x2
	.byte	0x91
	.sleb128 -48
	.uleb128 0x57
	.long	.LASF383
	.byte	0x1
	.byte	0x54
	.byte	0x1a
	.long	0xd80
	.uleb128 0x2
	.byte	0x91
	.sleb128 -56
	.uleb128 0x57
	.long	.LASF384
	.byte	0x1
	.byte	0x54
	.byte	0x2e
	.long	0xd80
	.uleb128 0x2
	.byte	0x91
	.sleb128 -64
	.uleb128 0x58
	.quad	.LBB4
	.quad	.LBE4-.LBB4
	.uleb128 0x59
	.string	"i"
	.byte	0x1
	.byte	0x4b
	.byte	0xe
	.long	0x98
	.uleb128 0x2
	.byte	0x91
	.sleb128 -36
	.byte	0
	.byte	0
	.uleb128 0x56
	.long	.LASF385
	.byte	0x1
	.byte	0x28
	.byte	0x8
	.long	.LASF386
	.long	0xd80
	.quad	.LFB1803
	.quad	.LFE1803-.LFB1803
	.uleb128 0x1
	.byte	0x9c
	.long	0x2541
	.uleb128 0x54
	.long	.LASF378
	.byte	0x1
	.byte	0x28
	.byte	0x27
	.long	0x3b
	.uleb128 0x3
	.byte	0x91
	.sleb128 -84
	.uleb128 0x57
	.long	.LASF380
	.byte	0x1
	.byte	0x2c
	.byte	0x14
	.long	0x186
	.uleb128 0x2
	.byte	0x91
	.sleb128 -64
	.uleb128 0x57
	.long	.LASF381
	.byte	0x1
	.byte	0x2d
	.byte	0x14
	.long	0x186
	.uleb128 0x3
	.byte	0x91
	.sleb128 -80
	.uleb128 0x57
	.long	.LASF382
	.byte	0x1
	.byte	0x3a
	.byte	0xc
	.long	0xd80
	.uleb128 0x2
	.byte	0x91
	.sleb128 -32
	.uleb128 0x57
	.long	.LASF383
	.byte	0x1
	.byte	0x3a
	.byte	0x1a
	.long	0xd80
	.uleb128 0x2
	.byte	0x91
	.sleb128 -40
	.uleb128 0x57
	.long	.LASF384
	.byte	0x1
	.byte	0x3a
	.byte	0x2e
	.long	0xd80
	.uleb128 0x2
	.byte	0x91
	.sleb128 -48
	.uleb128 0x58
	.quad	.LBB3
	.quad	.LBE3-.LBB3
	.uleb128 0x59
	.string	"i"
	.byte	0x1
	.byte	0x30
	.byte	0xe
	.long	0x98
	.uleb128 0x2
	.byte	0x91
	.sleb128 -20
	.byte	0
	.byte	0
	.uleb128 0x56
	.long	.LASF387
	.byte	0x1
	.byte	0xb
	.byte	0x8
	.long	.LASF388
	.long	0xd80
	.quad	.LFB1802
	.quad	.LFE1802-.LFB1802
	.uleb128 0x1
	.byte	0x9c
	.long	0x260d
	.uleb128 0x54
	.long	.LASF378
	.byte	0x1
	.byte	0xb
	.byte	0x28
	.long	0x3b
	.uleb128 0x3
	.byte	0x91
	.sleb128 -100
	.uleb128 0x57
	.long	.LASF380
	.byte	0x1
	.byte	0xf
	.byte	0x14
	.long	0x186
	.uleb128 0x3
	.byte	0x91
	.sleb128 -80
	.uleb128 0x57
	.long	.LASF381
	.byte	0x1
	.byte	0x10
	.byte	0x14
	.long	0x186
	.uleb128 0x3
	.byte	0x91
	.sleb128 -96
	.uleb128 0x59
	.string	"res"
	.byte	0x1
	.byte	0x12
	.byte	0x9
	.long	0x98
	.uleb128 0x2
	.byte	0x91
	.sleb128 -32
	.uleb128 0x59
	.string	"a"
	.byte	0x1
	.byte	0x13
	.byte	0x9
	.long	0x98
	.uleb128 0x2
	.byte	0x91
	.sleb128 -24
	.uleb128 0x59
	.string	"b"
	.byte	0x1
	.byte	0x14
	.byte	0x9
	.long	0x98
	.uleb128 0x2
	.byte	0x91
	.sleb128 -28
	.uleb128 0x57
	.long	.LASF382
	.byte	0x1
	.byte	0x20
	.byte	0xc
	.long	0xd80
	.uleb128 0x2
	.byte	0x91
	.sleb128 -40
	.uleb128 0x57
	.long	.LASF383
	.byte	0x1
	.byte	0x20
	.byte	0x1a
	.long	0xd80
	.uleb128 0x2
	.byte	0x91
	.sleb128 -48
	.uleb128 0x57
	.long	.LASF384
	.byte	0x1
	.byte	0x20
	.byte	0x2e
	.long	0xd80
	.uleb128 0x2
	.byte	0x91
	.sleb128 -56
	.uleb128 0x58
	.quad	.LBB2
	.quad	.LBE2-.LBB2
	.uleb128 0x59
	.string	"i"
	.byte	0x1
	.byte	0x16
	.byte	0xe
	.long	0x98
	.uleb128 0x2
	.byte	0x91
	.sleb128 -20
	.byte	0
	.byte	0
	.uleb128 0x5a
	.long	.LASF390
	.byte	0x1
	.byte	0x7
	.byte	0x6
	.long	.LASF409
	.quad	.LFB1801
	.quad	.LFE1801-.LFB1801
	.uleb128 0x1
	.byte	0x9c
	.byte	0
	.section	.debug_abbrev,"",@progbits
.Ldebug_abbrev0:
	.uleb128 0x1
	.uleb128 0x11
	.byte	0x1
	.uleb128 0x25
	.uleb128 0xe
	.uleb128 0x13
	.uleb128 0xb
	.uleb128 0x3
	.uleb128 0xe
	.uleb128 0x1b
	.uleb128 0xe
	.uleb128 0x11
	.uleb128 0x1
	.uleb128 0x12
	.uleb128 0x7
	.uleb128 0x10
	.uleb128 0x17
	.byte	0
	.byte	0
	.uleb128 0x2
	.uleb128 0x24
	.byte	0
	.uleb128 0xb
	.uleb128 0xb
	.uleb128 0x3e
	.uleb128 0xb
	.uleb128 0x3
	.uleb128 0xe
	.byte	0
	.byte	0
	.uleb128 0x3
	.uleb128 0x16
	.byte	0
	.uleb128 0x3
	.uleb128 0xe
	.uleb128 0x3a
	.uleb128 0xb
	.uleb128 0x3b
	.uleb128 0xb
	.uleb128 0x39
	.uleb128 0xb
	.uleb128 0x49
	.uleb128 0x13
	.byte	0
	.byte	0
	.uleb128 0x4
	.uleb128 0x26
	.byte	0
	.uleb128 0x49
	.uleb128 0x13
	.byte	0
	.byte	0
	.uleb128 0x5
	.uleb128 0x24
	.byte	0
	.uleb128 0xb
	.uleb128 0xb
	.uleb128 0x3e
	.uleb128 0xb
	.uleb128 0x3
	.uleb128 0x8
	.byte	0
	.byte	0
	.uleb128 0x6
	.uleb128 0xf
	.byte	0
	.uleb128 0xb
	.uleb128 0xb
	.byte	0
	.byte	0
	.uleb128 0x7
	.uleb128 0xf
	.byte	0
	.uleb128 0xb
	.uleb128 0xb
	.uleb128 0x49
	.uleb128 0x13
	.byte	0
	.byte	0
	.uleb128 0x8
	.uleb128 0x13
	.byte	0x1
	.uleb128 0x3
	.uleb128 0xe
	.uleb128 0xb
	.uleb128 0xb
	.uleb128 0x3a
	.uleb128 0xb
	.uleb128 0x3b
	.uleb128 0xb
	.uleb128 0x39
	.uleb128 0xb
	.uleb128 0x1
	.uleb128 0x13
	.byte	0
	.byte	0
	.uleb128 0x9
	.uleb128 0xd
	.byte	0
	.uleb128 0x3
	.uleb128 0xe
	.uleb128 0x3a
	.uleb128 0xb
	.uleb128 0x3b
	.uleb128 0xb
	.uleb128 0x39
	.uleb128 0xb
	.uleb128 0x49
	.uleb128 0x13
	.uleb128 0x38
	.uleb128 0xb
	.byte	0
	.byte	0
	.uleb128 0xa
	.uleb128 0x39
	.byte	0x1
	.uleb128 0x3
	.uleb128 0x8
	.uleb128 0x3a
	.uleb128 0xb
	.uleb128 0x3b
	.uleb128 0xb
	.uleb128 0x1
	.uleb128 0x13
	.byte	0
	.byte	0
	.uleb128 0xb
	.uleb128 0x39
	.byte	0
	.uleb128 0x3
	.uleb128 0xe
	.uleb128 0x3a
	.uleb128 0xb
	.uleb128 0x3b
	.uleb128 0x5
	.uleb128 0x39
	.uleb128 0xb
	.uleb128 0x89
	.uleb128 0x19
	.byte	0
	.byte	0
	.uleb128 0xc
	.uleb128 0x3a
	.byte	0
	.uleb128 0x3a
	.uleb128 0xb
	.uleb128 0x3b
	.uleb128 0x5
	.uleb128 0x39
	.uleb128 0xb
	.uleb128 0x18
	.uleb128 0x13
	.byte	0
	.byte	0
	.uleb128 0xd
	.uleb128 0x8
	.byte	0
	.uleb128 0x3a
	.uleb128 0xb
	.uleb128 0x3b
	.uleb128 0x5
	.uleb128 0x39
	.uleb128 0xb
	.uleb128 0x18
	.uleb128 0x13
	.byte	0
	.byte	0
	.uleb128 0xe
	.uleb128 0x8
	.byte	0
	.uleb128 0x3a
	.uleb128 0xb
	.uleb128 0x3b
	.uleb128 0xb
	.uleb128 0x39
	.uleb128 0xb
	.uleb128 0x18
	.uleb128 0x13
	.byte	0
	.byte	0
	.uleb128 0xf
	.uleb128 0x39
	.byte	0x1
	.uleb128 0x3
	.uleb128 0xe
	.uleb128 0x3a
	.uleb128 0xb
	.uleb128 0x3b
	.uleb128 0xb
	.uleb128 0x39
	.uleb128 0xb
	.uleb128 0x1
	.uleb128 0x13
	.byte	0
	.byte	0
	.uleb128 0x10
	.uleb128 0x2
	.byte	0x1
	.uleb128 0x3
	.uleb128 0xe
	.uleb128 0xb
	.uleb128 0xb
	.uleb128 0x3a
	.uleb128 0xb
	.uleb128 0x3b
	.uleb128 0xb
	.uleb128 0x39
	.uleb128 0xb
	.uleb128 0x1
	.uleb128 0x13
	.byte	0
	.byte	0
	.uleb128 0x11
	.uleb128 0x2e
	.byte	0x1
	.uleb128 0x3f
	.uleb128 0x19
	.uleb128 0x3
	.uleb128 0xe
	.uleb128 0x3a
	.uleb128 0xb
	.uleb128 0x3b
	.uleb128 0xb
	.uleb128 0x39
	.uleb128 0xb
	.uleb128 0x6e
	.uleb128 0xe
	.uleb128 0x3c
	.uleb128 0x19
	.uleb128 0x63
	.uleb128 0x19
	.uleb128 0x64
	.uleb128 0x13
	.uleb128 0x1
	.uleb128 0x13
	.byte	0
	.byte	0
	.uleb128 0x12
	.uleb128 0x5
	.byte	0
	.uleb128 0x49
	.uleb128 0x13
	.uleb128 0x34
	.uleb128 0x19
	.byte	0
	.byte	0
	.uleb128 0x13
	.uleb128 0x5
	.byte	0
	.uleb128 0x49
	.uleb128 0x13
	.byte	0
	.byte	0
	.uleb128 0x14
	.uleb128 0x2e
	.byte	0x1
	.uleb128 0x3f
	.uleb128 0x19
	.uleb128 0x3
	.uleb128 0xe
	.uleb128 0x3a
	.uleb128 0xb
	.uleb128 0x3b
	.uleb128 0xb
	.uleb128 0x39
	.uleb128 0xb
	.uleb128 0x6e
	.uleb128 0xe
	.uleb128 0x3c
	.uleb128 0x19
	.uleb128 0x64
	.uleb128 0x13
	.uleb128 0x1
	.uleb128 0x13
	.byte	0
	.byte	0
	.uleb128 0x15
	.uleb128 0x2e
	.byte	0x1
	.uleb128 0x3f
	.uleb128 0x19
	.uleb128 0x3
	.uleb128 0xe
	.uleb128 0x3a
	.uleb128 0xb
	.uleb128 0x3b
	.uleb128 0xb
	.uleb128 0x39
	.uleb128 0xb
	.uleb128 0x6e
	.uleb128 0xe
	.uleb128 0x49
	.uleb128 0x13
	.uleb128 0x3c
	.uleb128 0x19
	.uleb128 0x64
	.uleb128 0x13
	.uleb128 0x1
	.uleb128 0x13
	.byte	0
	.byte	0
	.uleb128 0x16
	.uleb128 0x2e
	.byte	0x1
	.uleb128 0x3f
	.uleb128 0x19
	.uleb128 0x3
	.uleb128 0xe
	.uleb128 0x3a
	.uleb128 0xb
	.uleb128 0x3b
	.uleb128 0xb
	.uleb128 0x39
	.uleb128 0xb
	.uleb128 0x6e
	.uleb128 0xe
	.uleb128 0x32
	.uleb128 0xb
	.uleb128 0x3c
	.uleb128 0x19
	.uleb128 0x64
	.uleb128 0x13
	.uleb128 0x1
	.uleb128 0x13
	.byte	0
	.byte	0
	.uleb128 0x17
	.uleb128 0x2e
	.byte	0x1
	.uleb128 0x3f
	.uleb128 0x19
	.uleb128 0x3
	.uleb128 0xe
	.uleb128 0x3a
	.uleb128 0xb
	.uleb128 0x3b
	.uleb128 0xb
	.uleb128 0x39
	.uleb128 0xb
	.uleb128 0x6e
	.uleb128 0xe
	.uleb128 0x49
	.uleb128 0x13
	.uleb128 0x32
	.uleb128 0xb
	.uleb128 0x3c
	.uleb128 0x19
	.uleb128 0x64
	.uleb128 0x13
	.uleb128 0x1
	.uleb128 0x13
	.byte	0
	.byte	0
	.uleb128 0x18
	.uleb128 0x2e
	.byte	0x1
	.uleb128 0x3f
	.uleb128 0x19
	.uleb128 0x3
	.uleb128 0xe
	.uleb128 0x3a
	.uleb128 0xb
	.uleb128 0x3b
	.uleb128 0xb
	.uleb128 0x39
	.uleb128 0xb
	.uleb128 0x6e
	.uleb128 0xe
	.uleb128 0x49
	.uleb128 0x13
	.uleb128 0x32
	.uleb128 0xb
	.uleb128 0x3c
	.uleb128 0x19
	.uleb128 0x63
	.uleb128 0x19
	.uleb128 0x64
	.uleb128 0x13
	.uleb128 0x1
	.uleb128 0x13
	.byte	0
	.byte	0
	.uleb128 0x19
	.uleb128 0x2e
	.byte	0x1
	.uleb128 0x3f
	.uleb128 0x19
	.uleb128 0x3
	.uleb128 0xe
	.uleb128 0x3a
	.uleb128 0xb
	.uleb128 0x3b
	.uleb128 0xb
	.uleb128 0x39
	.uleb128 0xb
	.uleb128 0x6e
	.uleb128 0xe
	.uleb128 0x49
	.uleb128 0x13
	.uleb128 0x32
	.uleb128 0xb
	.uleb128 0x3c
	.uleb128 0x19
	.uleb128 0x64
	.uleb128 0x13
	.byte	0
	.byte	0
	.uleb128 0x1a
	.uleb128 0x2e
	.byte	0x1
	.uleb128 0x3f
	.uleb128 0x19
	.uleb128 0x3
	.uleb128 0xe
	.uleb128 0x3a
	.uleb128 0xb
	.uleb128 0x3b
	.uleb128 0xb
	.uleb128 0x39
	.uleb128 0xb
	.uleb128 0x6e
	.uleb128 0xe
	.uleb128 0x87
	.uleb128 0x19
	.uleb128 0x3c
	.uleb128 0x19
	.uleb128 0x1
	.uleb128 0x13
	.byte	0
	.byte	0
	.uleb128 0x1b
	.uleb128 0x16
	.byte	0
	.uleb128 0x3
	.uleb128 0xe
	.uleb128 0x3a
	.uleb128 0xb
	.uleb128 0x3b
	.uleb128 0x5
	.uleb128 0x39
	.uleb128 0xb
	.uleb128 0x49
	.uleb128 0x13
	.byte	0
	.byte	0
	.uleb128 0x1c
	.uleb128 0x2
	.byte	0
	.uleb128 0x3
	.uleb128 0xe
	.uleb128 0x3c
	.uleb128 0x19
	.byte	0
	.byte	0
	.uleb128 0x1d
	.uleb128 0x39
	.byte	0
	.uleb128 0x3
	.uleb128 0xe
	.uleb128 0x3a
	.uleb128 0xb
	.uleb128 0x3b
	.uleb128 0x5
	.uleb128 0x39
	.uleb128 0xb
	.byte	0
	.byte	0
	.uleb128 0x1e
	.uleb128 0x2e
	.byte	0x1
	.uleb128 0x3f
	.uleb128 0x19
	.uleb128 0x3
	.uleb128 0xe
	.uleb128 0x3a
	.uleb128 0xb
	.uleb128 0x3b
	.uleb128 0xb
	.uleb128 0x39
	.uleb128 0xb
	.uleb128 0x6e
	.uleb128 0xe
	.uleb128 0x3c
	.uleb128 0x19
	.uleb128 0x63
	.uleb128 0x19
	.uleb128 0x8b
	.uleb128 0xb
	.uleb128 0x64
	.uleb128 0x13
	.byte	0
	.byte	0
	.uleb128 0x1f
	.uleb128 0x34
	.byte	0
	.uleb128 0x3
	.uleb128 0xe
	.uleb128 0x3a
	.uleb128 0xb
	.uleb128 0x3b
	.uleb128 0xb
	.uleb128 0x39
	.uleb128 0xb
	.uleb128 0x49
	.uleb128 0x13
	.uleb128 0x3c
	.uleb128 0x19
	.uleb128 0x1c
	.uleb128 0xa
	.uleb128 0x6c
	.uleb128 0x19
	.byte	0
	.byte	0
	.uleb128 0x20
	.uleb128 0x39
	.byte	0
	.uleb128 0x3
	.uleb128 0xe
	.uleb128 0x3a
	.uleb128 0xb
	.uleb128 0x3b
	.uleb128 0xb
	.uleb128 0x39
	.uleb128 0xb
	.byte	0
	.byte	0
	.uleb128 0x21
	.uleb128 0x13
	.byte	0x1
	.uleb128 0x3
	.uleb128 0xe
	.uleb128 0xb
	.uleb128 0xb
	.uleb128 0x3a
	.uleb128 0xb
	.uleb128 0x3b
	.uleb128 0x5
	.uleb128 0x39
	.uleb128 0xb
	.uleb128 0x1
	.uleb128 0x13
	.byte	0
	.byte	0
	.uleb128 0x22
	.uleb128 0x2e
	.byte	0x1
	.uleb128 0x3f
	.uleb128 0x19
	.uleb128 0x3
	.uleb128 0xe
	.uleb128 0x3a
	.uleb128 0xb
	.uleb128 0x3b
	.uleb128 0x5
	.uleb128 0x39
	.uleb128 0xb
	.uleb128 0x6e
	.uleb128 0xe
	.uleb128 0x3c
	.uleb128 0x19
	.uleb128 0x1
	.uleb128 0x13
	.byte	0
	.byte	0
	.uleb128 0x23
	.uleb128 0x2e
	.byte	0x1
	.uleb128 0x3f
	.uleb128 0x19
	.uleb128 0x3
	.uleb128 0x8
	.uleb128 0x3a
	.uleb128 0xb
	.uleb128 0x3b
	.uleb128 0x5
	.uleb128 0x39
	.uleb128 0xb
	.uleb128 0x6e
	.uleb128 0xe
	.uleb128 0x49
	.uleb128 0x13
	.uleb128 0x3c
	.uleb128 0x19
	.uleb128 0x1
	.uleb128 0x13
	.byte	0
	.byte	0
	.uleb128 0x24
	.uleb128 0x2e
	.byte	0x1
	.uleb128 0x3f
	.uleb128 0x19
	.uleb128 0x3
	.uleb128 0xe
	.uleb128 0x3a
	.uleb128 0xb
	.uleb128 0x3b
	.uleb128 0x5
	.uleb128 0x39
	.uleb128 0xb
	.uleb128 0x6e
	.uleb128 0xe
	.uleb128 0x49
	.uleb128 0x13
	.uleb128 0x3c
	.uleb128 0x19
	.uleb128 0x1
	.uleb128 0x13
	.byte	0
	.byte	0
	.uleb128 0x25
	.uleb128 0x2e
	.byte	0
	.uleb128 0x3f
	.uleb128 0x19
	.uleb128 0x3
	.uleb128 0x8
	.uleb128 0x3a
	.uleb128 0xb
	.uleb128 0x3b
	.uleb128 0x5
	.uleb128 0x39
	.uleb128 0xb
	.uleb128 0x6e
	.uleb128 0xe
	.uleb128 0x49
	.uleb128 0x13
	.uleb128 0x3c
	.uleb128 0x19
	.byte	0
	.byte	0
	.uleb128 0x26
	.uleb128 0x2f
	.byte	0
	.uleb128 0x3
	.uleb128 0xe
	.uleb128 0x49
	.uleb128 0x13
	.byte	0
	.byte	0
	.uleb128 0x27
	.uleb128 0x39
	.byte	0x1
	.uleb128 0x3
	.uleb128 0xe
	.uleb128 0x3a
	.uleb128 0xb
	.uleb128 0x3b
	.uleb128 0x5
	.uleb128 0x39
	.uleb128 0xb
	.uleb128 0x89
	.uleb128 0x19
	.uleb128 0x1
	.uleb128 0x13
	.byte	0
	.byte	0
	.uleb128 0x28
	.uleb128 0x39
	.byte	0
	.uleb128 0x3
	.uleb128 0x8
	.uleb128 0x3a
	.uleb128 0xb
	.uleb128 0x3b
	.uleb128 0xb
	.uleb128 0x39
	.uleb128 0xb
	.uleb128 0x89
	.uleb128 0x19
	.byte	0
	.byte	0
	.uleb128 0x29
	.uleb128 0x3a
	.byte	0
	.uleb128 0x3a
	.uleb128 0xb
	.uleb128 0x3b
	.uleb128 0xb
	.uleb128 0x39
	.uleb128 0xb
	.uleb128 0x18
	.uleb128 0x13
	.byte	0
	.byte	0
	.uleb128 0x2a
	.uleb128 0x2
	.byte	0x1
	.uleb128 0x3
	.uleb128 0xe
	.uleb128 0x3c
	.uleb128 0x19
	.uleb128 0x1
	.uleb128 0x13
	.byte	0
	.byte	0
	.uleb128 0x2b
	.uleb128 0x2
	.byte	0x1
	.uleb128 0x3
	.uleb128 0xe
	.uleb128 0xb
	.uleb128 0xb
	.uleb128 0x3a
	.uleb128 0xb
	.uleb128 0x3b
	.uleb128 0x5
	.uleb128 0x39
	.uleb128 0xb
	.uleb128 0x32
	.uleb128 0xb
	.uleb128 0x1
	.uleb128 0x13
	.byte	0
	.byte	0
	.uleb128 0x2c
	.uleb128 0x2e
	.byte	0x1
	.uleb128 0x3f
	.uleb128 0x19
	.uleb128 0x3
	.uleb128 0xe
	.uleb128 0x3a
	.uleb128 0xb
	.uleb128 0x3b
	.uleb128 0x5
	.uleb128 0x39
	.uleb128 0xb
	.uleb128 0x6e
	.uleb128 0xe
	.uleb128 0x32
	.uleb128 0xb
	.uleb128 0x3c
	.uleb128 0x19
	.uleb128 0x64
	.uleb128 0x13
	.uleb128 0x1
	.uleb128 0x13
	.byte	0
	.byte	0
	.uleb128 0x2d
	.uleb128 0x2e
	.byte	0x1
	.uleb128 0x3f
	.uleb128 0x19
	.uleb128 0x3
	.uleb128 0xe
	.uleb128 0x3a
	.uleb128 0xb
	.uleb128 0x3b
	.uleb128 0x5
	.uleb128 0x39
	.uleb128 0xb
	.uleb128 0x6e
	.uleb128 0xe
	.uleb128 0x32
	.uleb128 0xb
	.uleb128 0x3c
	.uleb128 0x19
	.uleb128 0x8b
	.uleb128 0xb
	.uleb128 0x64
	.uleb128 0x13
	.uleb128 0x1
	.uleb128 0x13
	.byte	0
	.byte	0
	.uleb128 0x2e
	.uleb128 0x2e
	.byte	0x1
	.uleb128 0x3f
	.uleb128 0x19
	.uleb128 0x3
	.uleb128 0xe
	.uleb128 0x3a
	.uleb128 0xb
	.uleb128 0x3b
	.uleb128 0x5
	.uleb128 0x39
	.uleb128 0xb
	.uleb128 0x6e
	.uleb128 0xe
	.uleb128 0x49
	.uleb128 0x13
	.uleb128 0x32
	.uleb128 0xb
	.uleb128 0x3c
	.uleb128 0x19
	.uleb128 0x8b
	.uleb128 0xb
	.uleb128 0x64
	.uleb128 0x13
	.uleb128 0x1
	.uleb128 0x13
	.byte	0
	.byte	0
	.uleb128 0x2f
	.uleb128 0xd
	.byte	0
	.uleb128 0x3
	.uleb128 0xe
	.uleb128 0x3a
	.uleb128 0xb
	.uleb128 0x3b
	.uleb128 0x5
	.uleb128 0x39
	.uleb128 0xb
	.uleb128 0x49
	.uleb128 0x13
	.uleb128 0x3f
	.uleb128 0x19
	.uleb128 0x3c
	.uleb128 0x19
	.byte	0
	.byte	0
	.uleb128 0x30
	.uleb128 0x2f
	.byte	0
	.uleb128 0x3
	.uleb128 0xe
	.uleb128 0x49
	.uleb128 0x13
	.uleb128 0x1e
	.uleb128 0x19
	.byte	0
	.byte	0
	.uleb128 0x31
	.uleb128 0x34
	.byte	0
	.uleb128 0x3
	.uleb128 0xe
	.uleb128 0x3a
	.uleb128 0xb
	.uleb128 0x3b
	.uleb128 0xb
	.uleb128 0x39
	.uleb128 0xb
	.uleb128 0x6e
	.uleb128 0xe
	.uleb128 0x49
	.uleb128 0x13
	.uleb128 0x3f
	.uleb128 0x19
	.uleb128 0x3c
	.uleb128 0x19
	.byte	0
	.byte	0
	.uleb128 0x32
	.uleb128 0x34
	.byte	0
	.uleb128 0x3
	.uleb128 0xe
	.uleb128 0x3a
	.uleb128 0xb
	.uleb128 0x3b
	.uleb128 0xb
	.uleb128 0x39
	.uleb128 0xb
	.uleb128 0x49
	.uleb128 0x13
	.uleb128 0x3c
	.uleb128 0x19
	.byte	0
	.byte	0
	.uleb128 0x33
	.uleb128 0x39
	.byte	0x1
	.uleb128 0x3
	.uleb128 0xe
	.uleb128 0x3a
	.uleb128 0xb
	.uleb128 0x3b
	.uleb128 0x5
	.uleb128 0x39
	.uleb128 0xb
	.uleb128 0x1
	.uleb128 0x13
	.byte	0
	.byte	0
	.uleb128 0x34
	.uleb128 0x2e
	.byte	0x1
	.uleb128 0x3f
	.uleb128 0x19
	.uleb128 0x3
	.uleb128 0x8
	.uleb128 0x3a
	.uleb128 0xb
	.uleb128 0x3b
	.uleb128 0xb
	.uleb128 0x39
	.uleb128 0xb
	.uleb128 0x6e
	.uleb128 0xe
	.uleb128 0x49
	.uleb128 0x13
	.uleb128 0x3c
	.uleb128 0x19
	.byte	0
	.byte	0
	.uleb128 0x35
	.uleb128 0x13
	.byte	0x1
	.uleb128 0xb
	.uleb128 0xb
	.uleb128 0x3a
	.uleb128 0xb
	.uleb128 0x3b
	.uleb128 0xb
	.uleb128 0x39
	.uleb128 0xb
	.uleb128 0x6e
	.uleb128 0xe
	.uleb128 0x1
	.uleb128 0x13
	.byte	0
	.byte	0
	.uleb128 0x36
	.uleb128 0xd
	.byte	0
	.uleb128 0x3
	.uleb128 0x8
	.uleb128 0x3a
	.uleb128 0xb
	.uleb128 0x3b
	.uleb128 0xb
	.uleb128 0x39
	.uleb128 0xb
	.uleb128 0x49
	.uleb128 0x13
	.uleb128 0x38
	.uleb128 0xb
	.byte	0
	.byte	0
	.uleb128 0x37
	.uleb128 0x1
	.byte	0x1
	.uleb128 0x49
	.uleb128 0x13
	.uleb128 0x1
	.uleb128 0x13
	.byte	0
	.byte	0
	.uleb128 0x38
	.uleb128 0x21
	.byte	0
	.uleb128 0x49
	.uleb128 0x13
	.uleb128 0x2f
	.uleb128 0xb
	.byte	0
	.byte	0
	.uleb128 0x39
	.uleb128 0x15
	.byte	0x1
	.uleb128 0x49
	.uleb128 0x13
	.uleb128 0x1
	.uleb128 0x13
	.byte	0
	.byte	0
	.uleb128 0x3a
	.uleb128 0x26
	.byte	0
	.byte	0
	.byte	0
	.uleb128 0x3b
	.uleb128 0x13
	.byte	0x1
	.uleb128 0x3
	.uleb128 0xe
	.uleb128 0xb
	.uleb128 0xb
	.uleb128 0x3a
	.uleb128 0xb
	.uleb128 0x3b
	.uleb128 0xb
	.uleb128 0x1
	.uleb128 0x13
	.byte	0
	.byte	0
	.uleb128 0x3c
	.uleb128 0xd
	.byte	0
	.uleb128 0x3
	.uleb128 0xe
	.uleb128 0x3a
	.uleb128 0xb
	.uleb128 0x3b
	.uleb128 0xb
	.uleb128 0x49
	.uleb128 0x13
	.uleb128 0x38
	.uleb128 0xb
	.byte	0
	.byte	0
	.uleb128 0x3d
	.uleb128 0x17
	.byte	0x1
	.uleb128 0xb
	.uleb128 0xb
	.uleb128 0x3a
	.uleb128 0xb
	.uleb128 0x3b
	.uleb128 0xb
	.uleb128 0x39
	.uleb128 0xb
	.uleb128 0x1
	.uleb128 0x13
	.byte	0
	.byte	0
	.uleb128 0x3e
	.uleb128 0xd
	.byte	0
	.uleb128 0x3
	.uleb128 0xe
	.uleb128 0x3a
	.uleb128 0xb
	.uleb128 0x3b
	.uleb128 0xb
	.uleb128 0x39
	.uleb128 0xb
	.uleb128 0x49
	.uleb128 0x13
	.byte	0
	.byte	0
	.uleb128 0x3f
	.uleb128 0x2e
	.byte	0x1
	.uleb128 0x3f
	.uleb128 0x19
	.uleb128 0x3
	.uleb128 0xe
	.uleb128 0x3a
	.uleb128 0xb
	.uleb128 0x3b
	.uleb128 0x5
	.uleb128 0x39
	.uleb128 0xb
	.uleb128 0x49
	.uleb128 0x13
	.uleb128 0x3c
	.uleb128 0x19
	.uleb128 0x1
	.uleb128 0x13
	.byte	0
	.byte	0
	.uleb128 0x40
	.uleb128 0x18
	.byte	0
	.byte	0
	.byte	0
	.uleb128 0x41
	.uleb128 0x2e
	.byte	0
	.uleb128 0x3f
	.uleb128 0x19
	.uleb128 0x3
	.uleb128 0xe
	.uleb128 0x3a
	.uleb128 0xb
	.uleb128 0x3b
	.uleb128 0x5
	.uleb128 0x39
	.uleb128 0xb
	.uleb128 0x49
	.uleb128 0x13
	.uleb128 0x3c
	.uleb128 0x19
	.byte	0
	.byte	0
	.uleb128 0x42
	.uleb128 0x2e
	.byte	0x1
	.uleb128 0x3f
	.uleb128 0x19
	.uleb128 0x3
	.uleb128 0xe
	.uleb128 0x3a
	.uleb128 0xb
	.uleb128 0x3b
	.uleb128 0xb
	.uleb128 0x39
	.uleb128 0xb
	.uleb128 0x49
	.uleb128 0x13
	.uleb128 0x3c
	.uleb128 0x19
	.uleb128 0x1
	.uleb128 0x13
	.byte	0
	.byte	0
	.uleb128 0x43
	.uleb128 0x13
	.byte	0x1
	.uleb128 0x3
	.uleb128 0x8
	.uleb128 0xb
	.uleb128 0xb
	.uleb128 0x3a
	.uleb128 0xb
	.uleb128 0x3b
	.uleb128 0xb
	.uleb128 0x39
	.uleb128 0xb
	.uleb128 0x1
	.uleb128 0x13
	.byte	0
	.byte	0
	.uleb128 0x44
	.uleb128 0x2e
	.byte	0x1
	.uleb128 0x3f
	.uleb128 0x19
	.uleb128 0x3
	.uleb128 0xe
	.uleb128 0x3a
	.uleb128 0xb
	.uleb128 0x3b
	.uleb128 0xb
	.uleb128 0x39
	.uleb128 0xb
	.uleb128 0x6e
	.uleb128 0xe
	.uleb128 0x49
	.uleb128 0x13
	.uleb128 0x3c
	.uleb128 0x19
	.uleb128 0x1
	.uleb128 0x13
	.byte	0
	.byte	0
	.uleb128 0x45
	.uleb128 0x3b
	.byte	0
	.uleb128 0x3
	.uleb128 0xe
	.byte	0
	.byte	0
	.uleb128 0x46
	.uleb128 0x10
	.byte	0
	.uleb128 0xb
	.uleb128 0xb
	.uleb128 0x49
	.uleb128 0x13
	.byte	0
	.byte	0
	.uleb128 0x47
	.uleb128 0x42
	.byte	0
	.uleb128 0xb
	.uleb128 0xb
	.uleb128 0x49
	.uleb128 0x13
	.byte	0
	.byte	0
	.uleb128 0x48
	.uleb128 0x34
	.byte	0
	.uleb128 0x47
	.uleb128 0x13
	.byte	0
	.byte	0
	.uleb128 0x49
	.uleb128 0x2e
	.byte	0
	.uleb128 0x3f
	.uleb128 0x19
	.uleb128 0x3
	.uleb128 0xe
	.uleb128 0x3a
	.uleb128 0xb
	.uleb128 0x3b
	.uleb128 0xb
	.uleb128 0x39
	.uleb128 0xb
	.uleb128 0x49
	.uleb128 0x13
	.uleb128 0x3c
	.uleb128 0x19
	.byte	0
	.byte	0
	.uleb128 0x4a
	.uleb128 0x15
	.byte	0
	.byte	0
	.byte	0
	.uleb128 0x4b
	.uleb128 0x2e
	.byte	0x1
	.uleb128 0x3f
	.uleb128 0x19
	.uleb128 0x3
	.uleb128 0x8
	.uleb128 0x3a
	.uleb128 0xb
	.uleb128 0x3b
	.uleb128 0x5
	.uleb128 0x39
	.uleb128 0xb
	.uleb128 0x49
	.uleb128 0x13
	.uleb128 0x3c
	.uleb128 0x19
	.uleb128 0x1
	.uleb128 0x13
	.byte	0
	.byte	0
	.uleb128 0x4c
	.uleb128 0x2e
	.byte	0x1
	.uleb128 0x3f
	.uleb128 0x19
	.uleb128 0x3
	.uleb128 0xe
	.uleb128 0x3a
	.uleb128 0xb
	.uleb128 0x3b
	.uleb128 0x5
	.uleb128 0x39
	.uleb128 0xb
	.uleb128 0x3c
	.uleb128 0x19
	.uleb128 0x1
	.uleb128 0x13
	.byte	0
	.byte	0
	.uleb128 0x4d
	.uleb128 0x2e
	.byte	0x1
	.uleb128 0x3f
	.uleb128 0x19
	.uleb128 0x3
	.uleb128 0xe
	.uleb128 0x3a
	.uleb128 0xb
	.uleb128 0x3b
	.uleb128 0x5
	.uleb128 0x39
	.uleb128 0xb
	.uleb128 0x87
	.uleb128 0x19
	.uleb128 0x3c
	.uleb128 0x19
	.uleb128 0x1
	.uleb128 0x13
	.byte	0
	.byte	0
	.uleb128 0x4e
	.uleb128 0x16
	.byte	0
	.uleb128 0x3
	.uleb128 0xe
	.uleb128 0x3a
	.uleb128 0xb
	.uleb128 0x3b
	.uleb128 0xb
	.uleb128 0x39
	.uleb128 0xb
	.byte	0
	.byte	0
	.uleb128 0x4f
	.uleb128 0x13
	.byte	0
	.uleb128 0x3
	.uleb128 0xe
	.uleb128 0x3c
	.uleb128 0x19
	.byte	0
	.byte	0
	.uleb128 0x50
	.uleb128 0x34
	.byte	0
	.uleb128 0x47
	.uleb128 0x13
	.uleb128 0x2
	.uleb128 0x18
	.byte	0
	.byte	0
	.uleb128 0x51
	.uleb128 0x34
	.byte	0
	.uleb128 0x3
	.uleb128 0xe
	.uleb128 0x49
	.uleb128 0x13
	.uleb128 0x3f
	.uleb128 0x19
	.uleb128 0x34
	.uleb128 0x19
	.uleb128 0x3c
	.uleb128 0x19
	.byte	0
	.byte	0
	.uleb128 0x52
	.uleb128 0x2e
	.byte	0
	.uleb128 0x3
	.uleb128 0xe
	.uleb128 0x34
	.uleb128 0x19
	.uleb128 0x11
	.uleb128 0x1
	.uleb128 0x12
	.uleb128 0x7
	.uleb128 0x40
	.uleb128 0x18
	.uleb128 0x2116
	.uleb128 0x19
	.byte	0
	.byte	0
	.uleb128 0x53
	.uleb128 0x2e
	.byte	0x1
	.uleb128 0x3
	.uleb128 0xe
	.uleb128 0x34
	.uleb128 0x19
	.uleb128 0x11
	.uleb128 0x1
	.uleb128 0x12
	.uleb128 0x7
	.uleb128 0x40
	.uleb128 0x18
	.uleb128 0x2116
	.uleb128 0x19
	.uleb128 0x1
	.uleb128 0x13
	.byte	0
	.byte	0
	.uleb128 0x54
	.uleb128 0x5
	.byte	0
	.uleb128 0x3
	.uleb128 0xe
	.uleb128 0x3a
	.uleb128 0xb
	.uleb128 0x3b
	.uleb128 0xb
	.uleb128 0x39
	.uleb128 0xb
	.uleb128 0x49
	.uleb128 0x13
	.uleb128 0x2
	.uleb128 0x18
	.byte	0
	.byte	0
	.uleb128 0x55
	.uleb128 0x2e
	.byte	0
	.uleb128 0x3f
	.uleb128 0x19
	.uleb128 0x3
	.uleb128 0xe
	.uleb128 0x3a
	.uleb128 0xb
	.uleb128 0x3b
	.uleb128 0xb
	.uleb128 0x39
	.uleb128 0xb
	.uleb128 0x49
	.uleb128 0x13
	.uleb128 0x11
	.uleb128 0x1
	.uleb128 0x12
	.uleb128 0x7
	.uleb128 0x40
	.uleb128 0x18
	.uleb128 0x2116
	.uleb128 0x19
	.byte	0
	.byte	0
	.uleb128 0x56
	.uleb128 0x2e
	.byte	0x1
	.uleb128 0x3f
	.uleb128 0x19
	.uleb128 0x3
	.uleb128 0xe
	.uleb128 0x3a
	.uleb128 0xb
	.uleb128 0x3b
	.uleb128 0xb
	.uleb128 0x39
	.uleb128 0xb
	.uleb128 0x6e
	.uleb128 0xe
	.uleb128 0x49
	.uleb128 0x13
	.uleb128 0x11
	.uleb128 0x1
	.uleb128 0x12
	.uleb128 0x7
	.uleb128 0x40
	.uleb128 0x18
	.uleb128 0x2116
	.uleb128 0x19
	.uleb128 0x1
	.uleb128 0x13
	.byte	0
	.byte	0
	.uleb128 0x57
	.uleb128 0x34
	.byte	0
	.uleb128 0x3
	.uleb128 0xe
	.uleb128 0x3a
	.uleb128 0xb
	.uleb128 0x3b
	.uleb128 0xb
	.uleb128 0x39
	.uleb128 0xb
	.uleb128 0x49
	.uleb128 0x13
	.uleb128 0x2
	.uleb128 0x18
	.byte	0
	.byte	0
	.uleb128 0x58
	.uleb128 0xb
	.byte	0x1
	.uleb128 0x11
	.uleb128 0x1
	.uleb128 0x12
	.uleb128 0x7
	.byte	0
	.byte	0
	.uleb128 0x59
	.uleb128 0x34
	.byte	0
	.uleb128 0x3
	.uleb128 0x8
	.uleb128 0x3a
	.uleb128 0xb
	.uleb128 0x3b
	.uleb128 0xb
	.uleb128 0x39
	.uleb128 0xb
	.uleb128 0x49
	.uleb128 0x13
	.uleb128 0x2
	.uleb128 0x18
	.byte	0
	.byte	0
	.uleb128 0x5a
	.uleb128 0x2e
	.byte	0
	.uleb128 0x3f
	.uleb128 0x19
	.uleb128 0x3
	.uleb128 0xe
	.uleb128 0x3a
	.uleb128 0xb
	.uleb128 0x3b
	.uleb128 0xb
	.uleb128 0x39
	.uleb128 0xb
	.uleb128 0x6e
	.uleb128 0xe
	.uleb128 0x11
	.uleb128 0x1
	.uleb128 0x12
	.uleb128 0x7
	.uleb128 0x40
	.uleb128 0x18
	.uleb128 0x2117
	.uleb128 0x19
	.byte	0
	.byte	0
	.byte	0
	.section	.debug_aranges,"",@progbits
	.long	0x2c
	.value	0x2
	.long	.Ldebug_info0
	.byte	0x8
	.byte	0
	.value	0
	.value	0
	.quad	.Ltext0
	.quad	.Letext0-.Ltext0
	.quad	0
	.quad	0
	.section	.debug_line,"",@progbits
.Ldebug_line0:
	.section	.debug_str,"MS",@progbits,1
.LASF313:
	.string	"getenv"
.LASF201:
	.string	"__isoc99_vwscanf"
.LASF271:
	.string	"uint_fast16_t"
.LASF13:
	.string	"long int"
.LASF63:
	.string	"__debug"
.LASF297:
	.string	"int_p_cs_precedes"
.LASF265:
	.string	"uint_least64_t"
.LASF331:
	.string	"strtoull"
.LASF22:
	.string	"__uint_least64_t"
.LASF231:
	.string	"wcsxfrm"
.LASF252:
	.string	"char32_t"
.LASF48:
	.string	"~exception_ptr"
.LASF161:
	.string	"_shortbuf"
.LASF319:
	.string	"rand"
.LASF405:
	.string	"_IO_lock_t"
.LASF363:
	.string	"setvbuf"
.LASF128:
	.string	"gp_offset"
.LASF140:
	.string	"__FILE"
.LASF359:
	.string	"remove"
.LASF325:
	.string	"system"
.LASF78:
	.string	"assign"
.LASF216:
	.string	"tm_yday"
.LASF150:
	.string	"_IO_buf_end"
.LASF238:
	.string	"wscanf"
.LASF84:
	.string	"_ZNSt11char_traitsIcE11to_int_typeERKc"
.LASF30:
	.string	"tv_sec"
.LASF346:
	.string	"fflush"
.LASF115:
	.string	"double_t"
.LASF239:
	.string	"__isoc99_wscanf"
.LASF388:
	.string	"_Z18osm_operation_timej"
.LASF337:
	.string	"__fpos_t"
.LASF51:
	.string	"_ZNSt15__exception_ptr13exception_ptr4swapERS0_"
.LASF370:
	.string	"towctrans"
.LASF148:
	.string	"_IO_write_end"
.LASF2:
	.string	"unsigned int"
.LASF105:
	.string	"__gnu_cxx"
.LASF166:
	.string	"_freeres_list"
.LASF104:
	.string	"__exception_ptr"
.LASF142:
	.string	"_flags"
.LASF276:
	.string	"intmax_t"
.LASF273:
	.string	"uint_fast64_t"
.LASF267:
	.string	"int_fast16_t"
.LASF10:
	.string	"__int32_t"
.LASF175:
	.string	"wchar_t"
.LASF96:
	.string	"_S_refcount"
.LASF311:
	.string	"atol"
.LASF24:
	.string	"__uintmax_t"
.LASF200:
	.string	"vwscanf"
.LASF283:
	.string	"currency_symbol"
.LASF58:
	.string	"__swappable_details"
.LASF154:
	.string	"_markers"
.LASF197:
	.string	"vswscanf"
.LASF67:
	.string	"_ZNSt11char_traitsIcE2ltERKcS2_"
.LASF402:
	.string	"_ZN9__gnu_cxx3divExx"
.LASF191:
	.string	"__isoc99_swscanf"
.LASF19:
	.string	"__int_least32_t"
.LASF284:
	.string	"mon_decimal_point"
.LASF404:
	.string	"decltype(nullptr)"
.LASF62:
	.string	"_ZNSt21piecewise_construct_tC4Ev"
.LASF56:
	.string	"nullptr_t"
.LASF106:
	.string	"__ops"
.LASF167:
	.string	"_freeres_buf"
.LASF366:
	.string	"ungetc"
.LASF206:
	.string	"wcscpy"
.LASF88:
	.string	"_ZNSt11char_traitsIcE7not_eofERKi"
.LASF203:
	.string	"wcscat"
.LASF279:
	.string	"decimal_point"
.LASF294:
	.string	"n_sep_by_space"
.LASF336:
	.string	"__state"
.LASF368:
	.string	"wctrans_t"
.LASF214:
	.string	"tm_year"
.LASF76:
	.string	"copy"
.LASF199:
	.string	"vwprintf"
.LASF269:
	.string	"int_fast64_t"
.LASF253:
	.string	"__gnu_debug"
.LASF180:
	.string	"fwscanf"
.LASF330:
	.string	"strtoll"
.LASF263:
	.string	"uint_least16_t"
.LASF256:
	.string	"uint32_t"
.LASF123:
	.string	"int8_t"
.LASF292:
	.string	"p_sep_by_space"
.LASF184:
	.string	"mbrtowc"
.LASF317:
	.string	"mbtowc"
.LASF406:
	.string	"__dso_handle"
.LASF341:
	.string	"fpos_t"
.LASF136:
	.string	"__count"
.LASF111:
	.string	"float"
.LASF213:
	.string	"tm_mon"
.LASF159:
	.string	"_cur_column"
.LASF348:
	.string	"fgetpos"
.LASF339:
	.string	"_IO_codecvt"
.LASF198:
	.string	"__isoc99_vswscanf"
.LASF59:
	.string	"__swappable_with_details"
.LASF124:
	.string	"int16_t"
.LASF259:
	.string	"int_least16_t"
.LASF277:
	.string	"uintmax_t"
.LASF182:
	.string	"getwc"
.LASF107:
	.string	"long long unsigned int"
.LASF55:
	.string	"_ZSt17rethrow_exceptionNSt15__exception_ptr13exception_ptrE"
.LASF44:
	.string	"_ZNSt15__exception_ptr13exception_ptrC4EOS0_"
.LASF90:
	.string	"string_literals"
.LASF230:
	.string	"wcstoul"
.LASF11:
	.string	"__uint32_t"
.LASF302:
	.string	"int_n_sign_posn"
.LASF398:
	.string	"_ZNSt8ios_base4InitC4ERKS0_"
.LASF393:
	.string	"/cs/usr/liora_ves/Desktop/OS/ex1"
.LASF327:
	.string	"wctomb"
.LASF305:
	.string	"localeconv"
.LASF392:
	.string	"osm.cpp"
.LASF152:
	.string	"_IO_backup_base"
.LASF85:
	.string	"eq_int_type"
.LASF163:
	.string	"_offset"
.LASF83:
	.string	"to_int_type"
.LASF202:
	.string	"wcrtomb"
.LASF401:
	.string	"_ZSt4cout"
.LASF32:
	.string	"_M_exception_object"
.LASF328:
	.string	"lldiv"
.LASF329:
	.string	"atoll"
.LASF156:
	.string	"_fileno"
.LASF193:
	.string	"vfwprintf"
.LASF60:
	.string	"timeval"
.LASF385:
	.string	"osm_function_time"
.LASF350:
	.string	"fopen"
.LASF295:
	.string	"p_sign_posn"
.LASF373:
	.string	"__initialize_p"
.LASF57:
	.string	"size_t"
.LASF74:
	.string	"move"
.LASF258:
	.string	"int_least8_t"
.LASF160:
	.string	"_vtable_offset"
.LASF126:
	.string	"int64_t"
.LASF261:
	.string	"int_least64_t"
.LASF94:
	.string	"_ZNSt8ios_base4InitD4Ev"
.LASF187:
	.string	"putwc"
.LASF138:
	.string	"__mbstate_t"
.LASF262:
	.string	"uint_least8_t"
.LASF145:
	.string	"_IO_read_base"
.LASF20:
	.string	"__uint_least32_t"
.LASF312:
	.string	"bsearch"
.LASF153:
	.string	"_IO_save_end"
.LASF31:
	.string	"tv_usec"
.LASF289:
	.string	"int_frac_digits"
.LASF113:
	.string	"__float128"
.LASF375:
	.string	"osm_syscall_time"
.LASF342:
	.string	"clearerr"
.LASF243:
	.string	"wcsstr"
.LASF178:
	.string	"fwide"
.LASF299:
	.string	"int_n_cs_precedes"
.LASF72:
	.string	"find"
.LASF99:
	.string	"basic_ostream<char, std::char_traits<char> >"
.LASF288:
	.string	"negative_sign"
.LASF211:
	.string	"tm_hour"
.LASF137:
	.string	"__value"
.LASF9:
	.string	"__uint16_t"
.LASF61:
	.string	"piecewise_construct_t"
.LASF281:
	.string	"grouping"
.LASF114:
	.string	"float_t"
.LASF39:
	.string	"_ZNSt15__exception_ptr13exception_ptrC4EPv"
.LASF353:
	.string	"fseek"
.LASF29:
	.string	"char"
.LASF169:
	.string	"_mode"
.LASF118:
	.string	"5div_t"
.LASF190:
	.string	"swscanf"
.LASF345:
	.string	"ferror"
.LASF338:
	.string	"_IO_marker"
.LASF82:
	.string	"int_type"
.LASF146:
	.string	"_IO_write_base"
.LASF372:
	.string	"wctype"
.LASF382:
	.string	"sec_diff"
.LASF108:
	.string	"long long int"
.LASF14:
	.string	"__uint64_t"
.LASF318:
	.string	"quick_exit"
.LASF134:
	.string	"__wch"
.LASF254:
	.string	"uint8_t"
.LASF49:
	.string	"_ZNSt15__exception_ptr13exception_ptrD4Ev"
.LASF116:
	.string	"quot"
.LASF186:
	.string	"mbsrtowcs"
.LASF360:
	.string	"rename"
.LASF335:
	.string	"__pos"
.LASF409:
	.string	"_Z14empty_functionv"
.LASF316:
	.string	"mbstowcs"
.LASF50:
	.string	"swap"
.LASF37:
	.string	"exception_ptr"
.LASF227:
	.string	"wcstof"
.LASF225:
	.string	"wcsspn"
.LASF224:
	.string	"wcsrtombs"
.LASF53:
	.string	"_ZNKSt15__exception_ptr13exception_ptr20__cxa_exception_typeEv"
.LASF362:
	.string	"setbuf"
.LASF358:
	.string	"perror"
.LASF103:
	.string	"cout"
.LASF151:
	.string	"_IO_save_base"
.LASF286:
	.string	"mon_grouping"
.LASF395:
	.string	"_ZNSt11char_traitsIcE6assignERcRKc"
.LASF93:
	.string	"_ZNSt8ios_base4InitC4Ev"
.LASF248:
	.string	"bool"
.LASF89:
	.string	"__cxx11"
.LASF41:
	.string	"_ZNSt15__exception_ptr13exception_ptrC4Ev"
.LASF7:
	.string	"__int16_t"
.LASF291:
	.string	"p_cs_precedes"
.LASF65:
	.string	"char_type"
.LASF266:
	.string	"int_fast8_t"
.LASF79:
	.string	"_ZNSt11char_traitsIcE6assignEPcmc"
.LASF314:
	.string	"ldiv"
.LASF334:
	.string	"_G_fpos_t"
.LASF174:
	.string	"fgetws"
.LASF102:
	.string	"piecewise_construct"
.LASF45:
	.string	"operator="
.LASF38:
	.string	"_M_get"
.LASF17:
	.string	"__int_least16_t"
.LASF321:
	.string	"srand"
.LASF109:
	.string	"long double"
.LASF380:
	.string	"start_time"
.LASF354:
	.string	"fsetpos"
.LASF233:
	.string	"wmemcmp"
.LASF272:
	.string	"uint_fast32_t"
.LASF112:
	.string	"__unknown__"
.LASF355:
	.string	"ftell"
.LASF168:
	.string	"__pad5"
.LASF3:
	.string	"long unsigned int"
.LASF192:
	.string	"ungetwc"
.LASF347:
	.string	"fgetc"
.LASF367:
	.string	"wctype_t"
.LASF352:
	.string	"freopen"
.LASF361:
	.string	"rewind"
.LASF212:
	.string	"tm_mday"
.LASF5:
	.string	"__int8_t"
.LASF68:
	.string	"compare"
.LASF349:
	.string	"fgets"
.LASF240:
	.string	"wcschr"
.LASF12:
	.string	"__int64_t"
.LASF1:
	.string	"short unsigned int"
.LASF23:
	.string	"__intmax_t"
.LASF176:
	.string	"fputwc"
.LASF274:
	.string	"intptr_t"
.LASF255:
	.string	"uint16_t"
.LASF386:
	.string	"_Z17osm_function_timej"
.LASF389:
	.string	"main"
.LASF97:
	.string	"_S_synced_with_stdio"
.LASF177:
	.string	"fputws"
.LASF75:
	.string	"_ZNSt11char_traitsIcE4moveEPcPKcm"
.LASF384:
	.string	"final_res"
.LASF194:
	.string	"vfwscanf"
.LASF98:
	.string	"ios_base"
.LASF21:
	.string	"__int_least64_t"
.LASF172:
	.string	"btowc"
.LASF0:
	.string	"unsigned char"
.LASF16:
	.string	"__uint_least8_t"
.LASF268:
	.string	"int_fast32_t"
.LASF54:
	.string	"rethrow_exception"
.LASF144:
	.string	"_IO_read_end"
.LASF369:
	.string	"iswctype"
.LASF185:
	.string	"mbsinit"
.LASF244:
	.string	"wmemchr"
.LASF8:
	.string	"short int"
.LASF396:
	.string	"_ZNSt11char_traitsIcE3eofEv"
.LASF234:
	.string	"wmemcpy"
.LASF100:
	.string	"_CharT"
.LASF92:
	.string	"~Init"
.LASF282:
	.string	"int_curr_symbol"
.LASF247:
	.string	"wcstoull"
.LASF52:
	.string	"__cxa_exception_type"
.LASF290:
	.string	"frac_digits"
.LASF183:
	.string	"mbrlen"
.LASF69:
	.string	"length"
.LASF351:
	.string	"fread"
.LASF381:
	.string	"end_time"
.LASF394:
	.string	"type_info"
.LASF296:
	.string	"n_sign_posn"
.LASF47:
	.string	"_ZNSt15__exception_ptr13exception_ptraSEOS0_"
.LASF133:
	.string	"11__mbstate_t"
.LASF307:
	.string	"atexit"
.LASF64:
	.string	"char_traits<char>"
.LASF188:
	.string	"putwchar"
.LASF242:
	.string	"wcsrchr"
.LASF403:
	.string	"typedef __va_list_tag __va_list_tag"
.LASF80:
	.string	"to_char_type"
.LASF304:
	.string	"getwchar"
.LASF340:
	.string	"_IO_wide_data"
.LASF287:
	.string	"positive_sign"
.LASF135:
	.string	"__wchb"
.LASF257:
	.string	"uint64_t"
.LASF397:
	.string	"literals"
.LASF343:
	.string	"fclose"
.LASF110:
	.string	"double"
.LASF222:
	.string	"wcsncmp"
.LASF408:
	.string	"__static_initialization_and_destruction_0"
.LASF120:
	.string	"ldiv_t"
.LASF129:
	.string	"fp_offset"
.LASF6:
	.string	"__uint8_t"
.LASF208:
	.string	"wcsftime"
.LASF71:
	.string	"_ZNSt11char_traitsIcE6lengthEPKc"
.LASF205:
	.string	"wcscoll"
.LASF298:
	.string	"int_p_sep_by_space"
.LASF33:
	.string	"_M_addref"
.LASF86:
	.string	"_ZNSt11char_traitsIcE11eq_int_typeERKiS2_"
.LASF356:
	.string	"getc"
.LASF264:
	.string	"uint_least32_t"
.LASF95:
	.string	"operator bool"
.LASF308:
	.string	"at_quick_exit"
.LASF377:
	.string	"_Z16osm_syscall_timej"
.LASF81:
	.string	"_ZNSt11char_traitsIcE12to_char_typeERKi"
.LASF407:
	.string	"_GLOBAL__sub_I__Z14empty_functionv"
.LASF235:
	.string	"wmemmove"
.LASF376:
	.string	"_ZNKSt15__exception_ptr13exception_ptrcvbEv"
.LASF15:
	.string	"__int_least8_t"
.LASF165:
	.string	"_wide_data"
.LASF18:
	.string	"__uint_least16_t"
.LASF237:
	.string	"wprintf"
.LASF162:
	.string	"_lock"
.LASF324:
	.string	"strtoul"
.LASF278:
	.string	"lconv"
.LASF164:
	.string	"_codecvt"
.LASF158:
	.string	"_old_offset"
.LASF141:
	.string	"_IO_FILE"
.LASF306:
	.string	"_Atomic_word"
.LASF132:
	.string	"wint_t"
.LASF131:
	.string	"reg_save_area"
.LASF125:
	.string	"int32_t"
.LASF87:
	.string	"not_eof"
.LASF260:
	.string	"int_least32_t"
.LASF226:
	.string	"wcstod"
.LASF241:
	.string	"wcspbrk"
.LASF43:
	.string	"_ZNSt15__exception_ptr13exception_ptrC4EDn"
.LASF210:
	.string	"tm_min"
.LASF139:
	.string	"mbstate_t"
.LASF228:
	.string	"wcstok"
.LASF229:
	.string	"wcstol"
.LASF219:
	.string	"tm_zone"
.LASF391:
	.string	"GNU C++14 10.2.1 20210110 -mtune=generic -march=x86-64 -g -fasynchronous-unwind-tables"
.LASF250:
	.string	"__int128"
.LASF236:
	.string	"wmemset"
.LASF303:
	.string	"setlocale"
.LASF36:
	.string	"_ZNSt15__exception_ptr13exception_ptr10_M_releaseEv"
.LASF117:
	.string	"div_t"
.LASF73:
	.string	"_ZNSt11char_traitsIcE4findEPKcmRS1_"
.LASF40:
	.string	"_ZNKSt15__exception_ptr13exception_ptr6_M_getEv"
.LASF364:
	.string	"tmpfile"
.LASF357:
	.string	"getchar"
.LASF147:
	.string	"_IO_write_ptr"
.LASF280:
	.string	"thousands_sep"
.LASF34:
	.string	"_M_release"
.LASF390:
	.string	"empty_function"
.LASF322:
	.string	"strtod"
.LASF332:
	.string	"strtof"
.LASF270:
	.string	"uint_fast8_t"
.LASF344:
	.string	"feof"
.LASF28:
	.string	"__suseconds_t"
.LASF326:
	.string	"wcstombs"
.LASF323:
	.string	"strtol"
.LASF179:
	.string	"fwprintf"
.LASF315:
	.string	"mblen"
.LASF130:
	.string	"overflow_arg_area"
.LASF91:
	.string	"Init"
.LASF27:
	.string	"__time_t"
.LASF127:
	.string	"__compar_fn_t"
.LASF245:
	.string	"wcstold"
.LASF378:
	.string	"iterations"
.LASF232:
	.string	"wctob"
.LASF119:
	.string	"6ldiv_t"
.LASF246:
	.string	"wcstoll"
.LASF365:
	.string	"tmpnam"
.LASF189:
	.string	"swprintf"
.LASF399:
	.string	"_ZNSt8ios_base4InitaSERKS0_"
.LASF42:
	.string	"_ZNSt15__exception_ptr13exception_ptrC4ERKS0_"
.LASF333:
	.string	"strtold"
.LASF181:
	.string	"__isoc99_fwscanf"
.LASF25:
	.string	"__off_t"
.LASF121:
	.string	"7lldiv_t"
.LASF4:
	.string	"signed char"
.LASF285:
	.string	"mon_thousands_sep"
.LASF387:
	.string	"osm_operation_time"
.LASF374:
	.string	"__priority"
.LASF209:
	.string	"tm_sec"
.LASF300:
	.string	"int_n_sep_by_space"
.LASF122:
	.string	"lldiv_t"
.LASF309:
	.string	"atof"
.LASF207:
	.string	"wcscspn"
.LASF310:
	.string	"atoi"
.LASF293:
	.string	"n_cs_precedes"
.LASF217:
	.string	"tm_isdst"
.LASF46:
	.string	"_ZNSt15__exception_ptr13exception_ptraSERKS0_"
.LASF143:
	.string	"_IO_read_ptr"
.LASF223:
	.string	"wcsncpy"
.LASF173:
	.string	"fgetwc"
.LASF400:
	.string	"_Traits"
.LASF275:
	.string	"uintptr_t"
.LASF77:
	.string	"_ZNSt11char_traitsIcE4copyEPcPKcm"
.LASF249:
	.string	"__int128 unsigned"
.LASF204:
	.string	"wcscmp"
.LASF221:
	.string	"wcsncat"
.LASF218:
	.string	"tm_gmtoff"
.LASF101:
	.string	"ostream"
.LASF155:
	.string	"_chain"
.LASF251:
	.string	"char16_t"
.LASF35:
	.string	"_ZNSt15__exception_ptr13exception_ptr9_M_addrefEv"
.LASF171:
	.string	"FILE"
.LASF371:
	.string	"wctrans"
.LASF196:
	.string	"vswprintf"
.LASF215:
	.string	"tm_wday"
.LASF157:
	.string	"_flags2"
.LASF383:
	.string	"micro_sec_diff"
.LASF70:
	.string	"_ZNSt11char_traitsIcE7compareEPKcS2_m"
.LASF301:
	.string	"int_p_sign_posn"
.LASF66:
	.string	"_ZNSt11char_traitsIcE2eqERKcS2_"
.LASF220:
	.string	"wcslen"
.LASF26:
	.string	"__off64_t"
.LASF379:
	.string	"__ioinit"
.LASF170:
	.string	"_unused2"
.LASF149:
	.string	"_IO_buf_base"
.LASF195:
	.string	"__isoc99_vfwscanf"
.LASF320:
	.string	"qsort"
	.hidden	__dso_handle
	.ident	"GCC: (Debian 10.2.1-6) 10.2.1 20210110"
	.section	.note.GNU-stack,"",@progbits
